	.file	"u_xor_vpn.c"
	.text
.Ltext0:
	.section	.rodata.str1.1,"aMS",@progbits,1
.LC0:
	.string	"a"
	.text
	.p2align 4
	.globl	nfc_cb
	.type	nfc_cb, @function
nfc_cb:
.LVL0:
.LFB385:
	.file 1 "u_xor_vpn.c"
	.loc 1 168 37 view -0
	.cfi_startproc
	.loc 1 168 37 is_stmt 0 view .LVU1
	endbr64
	.loc 1 170 3 is_stmt 1 view .LVU2
	.loc 1 171 3 view .LVU3
	.loc 1 172 3 view .LVU4
.LVL1:
	.loc 1 173 3 view .LVU5
	.loc 1 174 3 view .LVU6
	.loc 1 175 3 view .LVU7
	.loc 1 176 3 view .LVU8
	.loc 1 177 3 view .LVU9
	.loc 1 178 3 view .LVU10
	.loc 1 180 3 view .LVU11
	.loc 1 168 37 is_stmt 0 view .LVU12
	pushq	%rbp
	.cfi_def_cfa_offset 16
	.cfi_offset 6, -16
	subq	$16, %rsp
	.cfi_def_cfa_offset 32
	.loc 1 180 10 view .LVU13
	// R3
	// leaq	12(%rdi), %rbx
	// cmp		%r13, %rbx
	// jg		.+7
	// jmp		trap
	// leaq	13(%rdi), %rbx
	// cmp		%r14, %rbx
	// jl		.+7
	// jmp		trap
	movzwl	12(%rdi), %eax
.LVL2:
	.loc 1 52 5 is_stmt 1 view .LVU14
	.loc 1 180 6 is_stmt 0 view .LVU15
	cmpw	$8, %ax
	je	.L2
	.loc 1 193 10 is_stmt 1 view .LVU16
.LVL3:
	.loc 1 52 5 view .LVU17
	.loc 1 193 13 is_stmt 0 view .LVU18
	cmpw	$-8826, %ax
	jne	.L20
	.loc 1 194 5 is_stmt 1 view .LVU19
.LVL4:
	.loc 1 195 5 view .LVU20
	.loc 1 219 10 view .LVU21
	.loc 1 220 5 view .LVU22
	.loc 1 220 13 is_stmt 0 view .LVU23
	leaq	-54(%rdi), %rbp
.LVL5:
.L5:
	.loc 1 223 3 is_stmt 1 view .LVU24
	.loc 1 224 3 view .LVU25
	.loc 1 226 3 view .LVU26
.LBB106:
.LBI106:
	.loc 1 55 7 view .LVU27
.LBB107:
	.loc 1 56 3 view .LVU28
	.loc 1 57 3 view .LVU29
	.loc 1 58 3 view .LVU30
	.loc 1 58 9 view .LVU31
	.loc 1 59 5 view .LVU32
	.loc 1 59 12 is_stmt 0 view .LVU33
	// 1
	leaq	(%rip), %rbx
	cmp		%r15, %rbx
	jg		.+7
	jmp		trap
	movzbl	new_eth_body(%rip), %eax
.LBE107:
.LBE106:
.LBB109:
.LBB110:
	.loc 1 68 18 view .LVU34
	pxor	%xmm1, %xmm1
.LBE110:
.LBE109:
	.loc 1 228 23 view .LVU35
	leaq	new_ip_body(%rip), %rcx
.LBB114:
.LBB108:
	.loc 1 59 10 view .LVU36
	// R3
	leaq	0(%rbp), %rbx
	cmp		%r13, %rbx
	jg		.+7
	jmp		trap
	cmp		%r14, %rbx
	jl		.+7
	jmp		trap
	movb	%al, 0(%rbp)
	.loc 1 58 9 is_stmt 1 view .LVU37
	.loc 1 59 5 view .LVU38
.LVL6:
	.loc 1 59 12 is_stmt 0 view .LVU39
	// 2
	leaq	(%rip), %rbx
	cmp		%r15, %rbx
	jg		.+7
	jmp		trap
	movzbl	1+new_eth_body(%rip), %eax
	.loc 1 59 10 view .LVU40
	// R3
	leaq	1(%rbp), %rbx
	cmp		%r13, %rbx
	jg		.+7
	jmp		trap
	cmp		%r14, %rbx
	jl		.+7
	jmp		trap
	movb	%al, 1(%rbp)
	.loc 1 58 9 is_stmt 1 view .LVU41
	.loc 1 59 5 view .LVU42
.LVL7:
	.loc 1 59 12 is_stmt 0 view .LVU43
	// 3
	leaq	(%rip), %rbx
	cmp		%r15, %rbx
	jg		.+7
	jmp		trap
	movzbl	2+new_eth_body(%rip), %eax
	.loc 1 59 10 view .LVU44
	// R3
	leaq	2(%rbp), %rbx
	cmp		%r13, %rbx
	jg		.+7
	jmp		trap
	cmp		%r14, %rbx
	jl		.+7
	jmp		trap
	movb	%al, 2(%rbp)
	.loc 1 58 9 is_stmt 1 view .LVU45
	.loc 1 59 5 view .LVU46
.LVL8:
	.loc 1 59 12 is_stmt 0 view .LVU47
	// 4
	leaq	(%rip), %rbx
	cmp		%r15, %rbx
	jg		.+7
	jmp		trap
	movzbl	3+new_eth_body(%rip), %eax
	.loc 1 59 10 view .LVU48
	// R3
	leaq	3(%rbp), %rbx
	cmp		%r13, %rbx
	jg		.+7
	jmp		trap
	cmp		%r14, %rbx
	jl		.+7
	jmp		trap
	movb	%al, 3(%rbp)
	.loc 1 58 9 is_stmt 1 view .LVU49
	.loc 1 59 5 view .LVU50
.LVL9:
	.loc 1 59 12 is_stmt 0 view .LVU51
	// 5
	leaq	(%rip), %rbx
	cmp		%r15, %rbx
	jg		.+7
	jmp		trap
	movzbl	4+new_eth_body(%rip), %eax
	.loc 1 59 10 view .LVU52
	// R3
	leaq	4(%rbp), %rbx
	cmp		%r13, %rbx
	jg		.+7
	jmp		trap
	cmp		%r14, %rbx
	jl		.+7
	jmp		trap
	movb	%al, 4(%rbp)
	.loc 1 58 9 is_stmt 1 view .LVU53
	.loc 1 59 5 view .LVU54
.LVL10:
	.loc 1 59 12 is_stmt 0 view .LVU55
	// 6
	leaq	(%rip), %rbx
	cmp		%r15, %rbx
	jg		.+7
	jmp		trap
	movzbl	5+new_eth_body(%rip), %eax
	.loc 1 59 10 view .LVU56
	// R3
	leaq	5(%rbp), %rbx
	cmp		%r13, %rbx
	jg		.+7
	jmp		trap
	cmp		%r14, %rbx
	jl		.+7
	jmp		trap
	movb	%al, 5(%rbp)
	.loc 1 58 9 is_stmt 1 view .LVU57
	.loc 1 59 5 view .LVU58
.LVL11:
	.loc 1 59 12 is_stmt 0 view .LVU59
	// 7
	leaq	(%rip), %rbx
	cmp		%r15, %rbx
	jg		.+7
	jmp		trap
	movzbl	6+new_eth_body(%rip), %eax
	.loc 1 59 10 view .LVU60
	// R3
	leaq	6(%rbp), %rbx
	cmp		%r13, %rbx
	jg		.+7
	jmp		trap
	cmp		%r14, %rbx
	jl		.+7
	jmp		trap
	movb	%al, 6(%rbp)
	.loc 1 58 9 is_stmt 1 view .LVU61
	.loc 1 59 5 view .LVU62
.LVL12:
	.loc 1 59 12 is_stmt 0 view .LVU63
	// 8
	leaq	(%rip), %rbx
	cmp		%r15, %rbx
	jg		.+7
	jmp		trap
	movzbl	7+new_eth_body(%rip), %eax
	.loc 1 59 10 view .LVU64
	// R3
	leaq	7(%rbp), %rbx
	cmp		%r13, %rbx
	jg		.+7
	jmp		trap
	cmp		%r14, %rbx
	jl		.+7
	jmp		trap
	movb	%al, 7(%rbp)
	.loc 1 58 9 is_stmt 1 view .LVU65
	.loc 1 59 5 view .LVU66
.LVL13:
	.loc 1 59 12 is_stmt 0 view .LVU67
	// 9
	leaq	(%rip), %rbx
	cmp		%r15, %rbx
	jg		.+7
	jmp		trap
	movzbl	8+new_eth_body(%rip), %eax
	.loc 1 59 10 view .LVU68
	// R3
	leaq	8(%rbp), %rbx
	cmp		%r13, %rbx
	jg		.+7
	jmp		trap
	cmp		%r14, %rbx
	jl		.+7
	jmp		trap
	movb	%al, 8(%rbp)
	.loc 1 58 9 is_stmt 1 view .LVU69
	.loc 1 59 5 view .LVU70
.LVL14:
	.loc 1 59 12 is_stmt 0 view .LVU71
	// 10
	leaq	(%rip), %rbx
	cmp		%r15, %rbx
	jg		.+7
	jmp		trap
	movzbl	9+new_eth_body(%rip), %eax
	.loc 1 59 10 view .LVU72
	// R3
	leaq	9(%rbp), %rbx
	cmp		%r13, %rbx
	jg		.+7
	jmp		trap
	cmp		%r14, %rbx
	jl		.+7
	jmp		trap
	movb	%al, 9(%rbp)
	.loc 1 58 9 is_stmt 1 view .LVU73
	.loc 1 59 5 view .LVU74
.LVL15:
	.loc 1 59 12 is_stmt 0 view .LVU75
	// 11
	leaq	(%rip), %rbx
	cmp		%r15, %rbx
	jg		.+7
	jmp		trap
	movzbl	10+new_eth_body(%rip), %eax
	.loc 1 59 10 view .LVU76
	// R3
	leaq	10(%rbp), %rbx
	cmp		%r13, %rbx
	jg		.+7
	jmp		trap
	cmp		%r14, %rbx
	jl		.+7
	jmp		trap
	movb	%al, 10(%rbp)
	.loc 1 58 9 is_stmt 1 view .LVU77
	.loc 1 59 5 view .LVU78
.LVL16:
	.loc 1 59 12 is_stmt 0 view .LVU79
	// 12
	leaq	(%rip), %rbx
	cmp		%r15, %rbx
	jg		.+7
	jmp		trap
	movzbl	11+new_eth_body(%rip), %eax
	.loc 1 59 10 view .LVU80
	// R3
	leaq	11(%rbp), %rbx
	cmp		%r13, %rbx
	jg		.+7
	jmp		trap
	cmp		%r14, %rbx
	jl		.+7
	jmp		trap
	movb	%al, 11(%rbp)
	.loc 1 58 9 is_stmt 1 view .LVU81
	.loc 1 59 5 view .LVU82
.LVL17:
	.loc 1 59 12 is_stmt 0 view .LVU83
	// 13
	leaq	(%rip), %rbx
	cmp		%r15, %rbx
	jg		.+7
	jmp		trap
	movzbl	12+new_eth_body(%rip), %eax
	.loc 1 59 10 view .LVU84
	// R3
	leaq	12(%rbp), %rbx
	cmp		%r13, %rbx
	jg		.+7
	jmp		trap
	cmp		%r14, %rbx
	jl		.+7
	jmp		trap
	movb	%al, 12(%rbp)
	.loc 1 58 9 is_stmt 1 view .LVU85
	.loc 1 59 5 view .LVU86
.LVL18:
	.loc 1 59 12 is_stmt 0 view .LVU87
	// 14
	leaq	(%rip), %rbx
	cmp		%r15, %rbx
	jg		.+7
	jmp		trap
	movzbl	13+new_eth_body(%rip), %eax
	.loc 1 59 10 view .LVU88
	// R3
	leaq	13(%rbp), %rbx
	cmp		%r13, %rbx
	jg		.+7
	jmp		trap
	cmp		%r14, %rbx
	jl		.+7
	jmp		trap
	movb	%al, 13(%rbp)
	.loc 1 58 9 is_stmt 1 view .LVU89
	.loc 1 61 3 view .LVU90
.LVL19:
	.loc 1 61 3 is_stmt 0 view .LVU91
.LBE108:
.LBE114:
	.loc 1 228 3 is_stmt 1 view .LVU92
	.loc 1 228 29 is_stmt 0 view .LVU93
	leal	20(%rsi), %eax
.LBB115:
.LBB111:
	.loc 1 68 18 view .LVU94
	// 15
	leaq	18+new_ip_body(%rip), %rbx
	cmp		%r15, %rbx
	jg		.+7
	jmp		trap
	movzwl	18+new_ip_body(%rip), %edx
.LBE111:
.LBE115:
	.loc 1 228 29 view .LVU95
	// 16
	leaq	2+new_ip_body(%rip), %rbx
	cmp		%r15, %rbx
	jg		.+7
	jmp		trap
	movw	%ax, 2+new_ip_body(%rip)
	.loc 1 229 3 is_stmt 1 view .LVU96
.LVL20:
.LBB116:
.LBI109:
	.loc 1 64 12 view .LVU97
.LBB112:
	.loc 1 67 11 view .LVU98
	.loc 1 68 9 view .LVU99
	.loc 1 68 18 is_stmt 0 view .LVU100
	// 17
	leaq	new_ip_body(%rip), %rbx
	cmp		%r15, %rbx
	jg		.+7
	jmp		trap
	movdqu	new_ip_body(%rip), %xmm0
	// 18
	leaq	16+new_ip_body(%rip), %rbx
	cmp		%r15, %rbx
	jg		.+7
	jmp		trap
	movzwl	16+new_ip_body(%rip), %eax
	movdqa	%xmm0, %xmm2
	punpcklwd	%xmm1, %xmm0
	punpckhwd	%xmm1, %xmm2
	.loc 1 68 15 view .LVU101
	addl	%eax, %edx
	paddd	%xmm2, %xmm0
	.loc 1 69 9 is_stmt 1 view .LVU102
	.loc 1 67 11 view .LVU103
	movdqa	%xmm0, %xmm1
	psrldq	$8, %xmm1
	paddd	%xmm1, %xmm0
	movdqa	%xmm0, %xmm1
	psrldq	$4, %xmm1
.LVL21:
	.loc 1 68 9 view .LVU104
	.loc 1 69 9 view .LVU105
	.loc 1 67 11 view .LVU106
	.loc 1 68 9 view .LVU107
	.loc 1 68 15 is_stmt 0 view .LVU108
	paddd	%xmm1, %xmm0
.LVL22:
	.loc 1 68 15 view .LVU109
	movd	%xmm0, %eax
	addl	%eax, %edx
.LVL23:
	.loc 1 69 9 is_stmt 1 view .LVU110
	.loc 1 67 11 view .LVU111
	.loc 1 72 5 view .LVU112
	.loc 1 76 5 view .LVU113
	.loc 1 76 20 is_stmt 0 view .LVU114
	movl	%edx, %eax
	.loc 1 76 36 view .LVU115
	movzwl	%dx, %edx
.LVL24:
	.loc 1 76 20 view .LVU116
	shrl	$16, %eax
.LVL25:
	.loc 1 76 11 view .LVU117
	addl	%edx, %eax
.LVL26:
	.loc 1 77 5 is_stmt 1 view .LVU118
	.loc 1 77 21 is_stmt 0 view .LVU119
	movl	%eax, %edx
	shrl	$16, %edx
.LVL27:
	.loc 1 79 5 is_stmt 1 view .LVU120
	.loc 1 77 11 is_stmt 0 view .LVU121
	addl	%edx, %eax
.LBE112:
.LBE116:
	.loc 1 224 17 view .LVU122
	leaq	14(%rbp), %rdx
.LVL28:
.LBB117:
.LBB113:
	.loc 1 79 12 view .LVU123
	notl	%eax
	// 19
	leaq	10+new_ip_body(%rip), %rbx
	cmp		%r15, %rbx
	jg		.+7
	jmp		trap
	movw	%ax, 10+new_ip_body(%rip)
.LBE113:
.LBE117:
	.loc 1 230 3 is_stmt 1 view .LVU124
.LVL29:
.LBB118:
.LBI118:
	.loc 1 55 7 view .LVU125
.LBB119:
	.loc 1 58 9 view .LVU126
	.loc 1 58 9 is_stmt 0 view .LVU127
	leaq	16(%rcx), %rax
	cmpq	%rax, %rdx
	jnb	.L14
	.loc 1 58 9 view .LVU128
	leaq	30(%rbp), %rax
	cmpq	%rcx, %rax
	ja	.L13
.L14:
.LVL30:
	.loc 1 59 5 is_stmt 1 view .LVU129
	.loc 1 59 10 is_stmt 0 view .LVU130
	// 20
	leaq	new_ip_body(%rip), %rbx
	cmp		%r15, %rbx
	jg		.+7
	jmp		trap
	movdqu	new_ip_body(%rip), %xmm3
	// R3
	leaq	14(%rbp), %rbx
	cmp		%r13, %rbx
	jg		.+7
	jmp		trap
	leaq	29(%rbp), %rbx
	cmp		%r14, %rbx
	jl		.+7
	jmp		trap
	movups	%xmm3, 14(%rbp)
	.loc 1 58 9 is_stmt 1 view .LVU131
.LVL31:
	.loc 1 59 5 view .LVU132
	.loc 1 58 9 view .LVU133
	.loc 1 59 5 view .LVU134
	.loc 1 58 9 view .LVU135
	.loc 1 59 5 view .LVU136
	.loc 1 58 9 view .LVU137
	.loc 1 59 5 view .LVU138
	.loc 1 59 10 is_stmt 0 view .LVU139
	// 21
	leaq	16+new_ip_body(%rip), %rbx
	cmp		%r15, %rbx
	jg		.+7
	jmp		trap
	movl	16+new_ip_body(%rip), %eax
	// R3
	leaq	30(%rbp), %rbx
	cmp		%r13, %rbx
	jg		.+7
	jmp		trap
	leaq	33(%rbp), %rbx
	cmp		%r14, %rbx
	jl		.+7
	jmp		trap
	movl	%eax, 30(%rbp)
	.loc 1 58 9 is_stmt 1 view .LVU140
.LVL32:
.L8:
	.loc 1 61 3 view .LVU141
	.loc 1 61 3 is_stmt 0 view .LVU142
.LBE119:
.LBE118:
	.loc 1 233 3 is_stmt 1 view .LVU143
.LBB121:
.LBB122:
	.loc 1 93 9 is_stmt 0 view .LVU144
	testl	%esi, %esi
	leal	7(%rsi), %ecx
.LBE122:
.LBE121:
	.loc 1 233 3 view .LVU145
	// 22
	leaq	key_len(%rip), %rbx
	cmp		%r15, %rbx
	jg		.+7
	jmp		trap
	movl	key_len(%rip), %r9d
	// 23
	leaq	key(%rip), %rbx
	cmp		%r15, %rbx
	jg		.+7
	jmp		trap
	movq	key(%rip), %r10
.LVL33:
.LBB126:
.LBI121:
	.loc 1 87 6 is_stmt 1 view .LVU146
.LBB125:
	.loc 1 89 5 view .LVU147
	.loc 1 90 5 view .LVU148
	.loc 1 93 5 view .LVU149
	.loc 1 93 9 is_stmt 0 view .LVU150
	cmovns	%esi, %ecx
	.loc 1 94 9 view .LVU151
	leal	7(%r9), %r11d
	.loc 1 93 9 view .LVU152
	sarl	$3, %ecx
.LVL34:
	.loc 1 94 5 is_stmt 1 view .LVU153
	.loc 1 94 9 is_stmt 0 view .LVU154
	testl	%r9d, %r9d
	cmovns	%r9d, %r11d
	sarl	$3, %r11d
.LVL35:
	.loc 1 97 5 is_stmt 1 view .LVU155
.LBB123:
	.loc 1 97 10 view .LVU156
	.loc 1 97 21 view .LVU157
	.loc 1 97 5 is_stmt 0 view .LVU158
	cmpl	$7, %esi
	jle	.L9
	xorl	%r8d, %r8d
.LVL36:
	.p2align 4,,10
	.p2align 3
.L10:
	.loc 1 98 9 is_stmt 1 view .LVU159
	.loc 1 98 47 is_stmt 0 view .LVU160
	movl	%r8d, %eax
	cltd
	idivl	%r11d
	movslq	%edx, %rdx
	.loc 1 98 35 view .LVU161
	// 24
	leaq	(%r10,%rdx,8), %rbx
	cmp		%r15, %rbx
	jg		.+7
	jmp		trap
	movq	(%r10,%rdx,8), %rax
	// R3
	leaq	(%rdi,%r8,8), %rbx
	cmp		%r13, %rbx
	jg		.+7
	jmp		trap
	leaq	7(%rdi,%r8,8), %rbx
	cmp		%r14, %rbx
	jl		.+7
	jmp		trap
	xorq	%rax, (%rdi,%r8,8)
	.loc 1 97 42 is_stmt 1 view .LVU162
.LVL37:
	.loc 1 97 21 view .LVU163
	addq	$1, %r8
.LVL38:
	.loc 1 97 5 is_stmt 0 view .LVU164
	cmpl	%r8d, %ecx
	jg	.L10
.L9:
	.loc 1 97 5 view .LVU165
.LBE123:
	.loc 1 102 5 is_stmt 1 view .LVU166
.LBB124:
	.loc 1 102 10 view .LVU167
	.loc 1 102 14 is_stmt 0 view .LVU168
	sall	$3, %ecx
.LVL39:
	.loc 1 102 39 is_stmt 1 view .LVU169
	.loc 1 102 5 is_stmt 0 view .LVU170
	cmpl	%ecx, %esi
	jle	.L11
	movslq	%ecx, %rcx
.LVL40:
	.p2align 4,,10
	.p2align 3
.L12:
	.loc 1 103 9 is_stmt 1 view .LVU171
	.loc 1 103 35 is_stmt 0 view .LVU172
	movl	%ecx, %eax
	cltd
	idivl	%r9d
	movslq	%edx, %rdx
	.loc 1 103 17 view .LVU173
	// 25
	leaq	(%r10,%rdx), %rbx
	cmp		%r15, %rbx
	jg		.+7
	jmp		trap
	movzbl	(%r10,%rdx), %eax
	// R3
	leaq	(%rdi,%rcx), %rbx
	cmp		%r13, %rbx
	jg		.+7
	jmp		trap
	cmp		%r14, %rbx
	jl		.+7
	jmp		trap
	xorb	%al, (%rdi,%rcx)
	.loc 1 102 53 is_stmt 1 view .LVU174
.LVL41:
	.loc 1 102 39 view .LVU175
	addq	$1, %rcx
.LVL42:
	.loc 1 102 5 is_stmt 0 view .LVU176
	cmpl	%ecx, %esi
	jg	.L12
.L11:
	.loc 1 102 5 view .LVU177
	// 26
	leaq	12(%rsp), %rbx
	cmp		%r15, %rbx
	jg		.+7
	jmp		trap
	movl	%esi, 12(%rsp)
.LVL43:
	.loc 1 102 5 view .LVU178
.LBE124:
.LBE125:
.LBE126:
	.loc 1 235 3 is_stmt 1 view .LVU179
	.loc 1 236 3 view .LVU180
	.loc 1 238 3 view .LVU181
#APP
# 238 "u_xor_vpn.c" 1
	# BEGIN_INTERESTING_SECTION
# 0 "" 2
	.loc 1 239 3 view .LVU182
.LVL44:
#NO_APP
.LBB127:
.LBI127:
	.file 2 "/usr/include/x86_64-linux-gnu/bits/stdio2.h"
	.loc 2 105 1 view .LVU183
.LBB128:
	.loc 2 107 3 view .LVU184
	.loc 2 107 10 is_stmt 0 view .LVU185
	// leaq	.LC0(%rip), %rdi
.LVL45:
	.loc 2 107 10 view .LVU186
	// call	puts@PLT
.LVL46:
	.loc 2 107 10 view .LVU187
.LBE128:
.LBE127:
	.loc 1 240 3 is_stmt 1 view .LVU188
#APP
# 240 "u_xor_vpn.c" 1
	# END_INTERESTING_SECTION
# 0 "" 2
	.loc 1 242 3 view .LVU189
	.loc 1 242 10 is_stmt 0 view .LVU190
#NO_APP
	// 27
	leaq	12(%rsp), %rbx
	cmp		%r15, %rbx
	jg		.+4
	jmp		trap
	movl	12(%rsp), %esi
	.loc 1 243 1 view .LVU191
	addq	$16, %rsp
	.cfi_remember_state
	.cfi_def_cfa_offset 16
	.loc 1 242 10 view .LVU192
	movq	%rbp, %rax
	.loc 1 243 1 view .LVU193
	popq	%rbp
	.cfi_def_cfa_offset 8
.LVL47:
	.loc 1 242 10 view .LVU194
	leal	34(%rsi), %edx
.LVL48:
	.loc 1 243 1 view .LVU195
	ret
.LVL49:
	.p2align 4,,10
	.p2align 3
.L20:
	.cfi_restore_state
	.loc 1 210 5 is_stmt 1 view .LVU196
	.loc 1 211 5 view .LVU197
	.loc 1 212 5 view .LVU198
	.loc 1 243 1 is_stmt 0 view .LVU199
	addq	$16, %rsp
	.cfi_remember_state
	.cfi_def_cfa_offset 16
	.loc 1 212 12 view .LVU200
	movq	%rdi, %rax
	movl	%esi, %edx
.LVL50:
	.loc 1 243 1 view .LVU201
	popq	%rbp
	.cfi_def_cfa_offset 8
	ret
	.p2align 4,,10
	.p2align 3
.L2:
	.cfi_restore_state
	.loc 1 181 5 is_stmt 1 view .LVU202
.LVL51:
	.loc 1 182 5 view .LVU203
	.loc 1 216 3 view .LVU204
	.loc 1 217 3 view .LVU205
	.loc 1 218 5 view .LVU206
	.loc 1 218 13 is_stmt 0 view .LVU207
	leaq	-34(%rdi), %rbp
.LVL52:
	.loc 1 218 13 view .LVU208
	jmp	.L5
.LVL53:
	.p2align 4,,10
	.p2align 3
.L13:
	.loc 1 229 21 view .LVU209
	xorl	%eax, %eax
.LVL54:
.L6:
.LBB129:
.LBB120:
	.loc 1 59 5 is_stmt 1 view .LVU210
	.loc 1 59 12 is_stmt 0 view .LVU211
	// 28
	leaq	(%rcx,%rax), %rbx
	cmp		%r15, %rbx
	jg		.+4
	jmp		trap
	movzbl	(%rcx,%rax), %edx
	.loc 1 59 10 view .LVU212
	// R3
	leaq	14(%rbp,%rax), %rbx
	cmp		%r13, %rbx
	jg		.+4
	jmp		trap
	cmp		%r14, %rbx
	jl		.+4
	jmp		trap
	movb	%dl, 14(%rbp,%rax)
	.loc 1 58 9 is_stmt 1 view .LVU213
	addq	$1, %rax
.LVL55:
	.loc 1 58 9 is_stmt 0 view .LVU214
	cmpq	$20, %rax
	jne	.L6
	jmp	.L8
.LBE120:
.LBE129:
	.cfi_endproc
.LFE385:
	.size	nfc_cb, .-nfc_cb
	.section	.rodata.str1.1
.LC1:
	.string	"trap!"
	.text
	.p2align 4
	.globl	trap
	.type	trap, @function
trap:
.LFB376:
	.loc 1 27 13 is_stmt 1 view -0
	.cfi_startproc
	endbr64
	pushq	%rax
	.cfi_def_cfa_offset 16
	popq	%rax
	.cfi_def_cfa_offset 8
	.loc 1 28 3 view .LVU216
.LVL56:
.LBB130:
.LBI130:
	.loc 2 105 1 view .LVU217
.LBB131:
	.loc 2 107 3 view .LVU218
	.loc 2 107 10 is_stmt 0 view .LVU219
	leaq	.LC1(%rip), %rdi
.LBE131:
.LBE130:
	.loc 1 27 13 view .LVU220
	subq	$8, %rsp
	.cfi_def_cfa_offset 16
.LBB133:
.LBB132:
	.loc 2 107 10 view .LVU221
	call	puts@PLT
.LVL57:
	.loc 2 107 10 view .LVU222
.LBE132:
.LBE133:
	.loc 1 29 3 is_stmt 1 view .LVU223
	movl	$1, %edi
	call	exit@PLT
.LVL58:
	.cfi_endproc
.LFE376:
	.size	trap, .-trap
	.section	.rodata.str1.1
.LC2:
	.string	"%x:%x:%x:%x:%x:%x"
	.text
	.p2align 4
	.globl	convert_mac
	.type	convert_mac, @function
convert_mac:
.LVL59:
.LFB377:
	.loc 1 32 67 view -0
	.cfi_startproc
	.loc 1 32 67 is_stmt 0 view .LVU225
	endbr64
	pushq	%rbp
	.cfi_def_cfa_offset 16
	.cfi_offset 6, -16
	movq	%rsi, %rbp
	.loc 1 34 14 view .LVU226
	leaq	.LC2(%rip), %rsi
.LVL60:
	.loc 1 32 67 view .LVU227
	subq	$32, %rsp
	.cfi_def_cfa_offset 48
	.loc 1 32 67 view .LVU228
	movq	%fs:40, %rax
	movq	%rax, 24(%rsp)
	xorl	%eax, %eax
	.loc 1 33 5 is_stmt 1 view .LVU229
	.loc 1 34 5 view .LVU230
	.loc 1 34 14 is_stmt 0 view .LVU231
	leaq	20(%rsp), %rax
	movq	%rsp, %rdx
	leaq	4(%rsp), %rcx
	pushq	%rax
	.cfi_def_cfa_offset 56
	leaq	24(%rsp), %rax
	pushq	%rax
	.cfi_def_cfa_offset 64
	xorl	%eax, %eax
	leaq	28(%rsp), %r9
	leaq	24(%rsp), %r8
	call	__isoc99_sscanf@PLT
.LVL61:
	.loc 1 34 8 view .LVU232
	popq	%rdx
	.cfi_def_cfa_offset 56
	popq	%rcx
	.cfi_def_cfa_offset 48
	cmpl	$6, %eax
	jne	.L26
.LVL62:
.LBB135:
	.loc 1 36 13 is_stmt 1 view .LVU233
	.loc 1 36 28 is_stmt 0 view .LVU234
	movl	(%rsp), %eax
	movb	%al, 0(%rbp)
	.loc 1 35 32 is_stmt 1 view .LVU235
.LVL63:
	.loc 1 35 25 view .LVU236
	.loc 1 36 13 view .LVU237
	.loc 1 36 28 is_stmt 0 view .LVU238
	movl	4(%rsp), %eax
	movb	%al, 1(%rbp)
	.loc 1 35 32 is_stmt 1 view .LVU239
.LVL64:
	.loc 1 35 25 view .LVU240
	.loc 1 36 13 view .LVU241
	.loc 1 36 28 is_stmt 0 view .LVU242
	movl	8(%rsp), %eax
	movb	%al, 2(%rbp)
	.loc 1 35 32 is_stmt 1 view .LVU243
.LVL65:
	.loc 1 35 25 view .LVU244
	.loc 1 36 13 view .LVU245
	.loc 1 36 28 is_stmt 0 view .LVU246
	movl	12(%rsp), %eax
	movb	%al, 3(%rbp)
	.loc 1 35 32 is_stmt 1 view .LVU247
.LVL66:
	.loc 1 35 25 view .LVU248
	.loc 1 36 13 view .LVU249
	.loc 1 36 28 is_stmt 0 view .LVU250
	movl	16(%rsp), %eax
	movb	%al, 4(%rbp)
	.loc 1 35 32 is_stmt 1 view .LVU251
.LVL67:
	.loc 1 35 25 view .LVU252
	.loc 1 36 13 view .LVU253
	.loc 1 36 28 is_stmt 0 view .LVU254
	movl	20(%rsp), %eax
	movb	%al, 5(%rbp)
	.loc 1 35 32 is_stmt 1 view .LVU255
.LVL68:
	.loc 1 35 25 view .LVU256
.LBE135:
	.loc 1 38 16 is_stmt 0 view .LVU257
	xorl	%eax, %eax
.LVL69:
.L23:
	.loc 1 41 1 view .LVU258
	movq	24(%rsp), %rdx
	xorq	%fs:40, %rdx
	jne	.L28
	addq	$32, %rsp
	.cfi_remember_state
	.cfi_def_cfa_offset 16
	popq	%rbp
	.cfi_def_cfa_offset 8
.LVL70:
	.loc 1 41 1 view .LVU259
	ret
.LVL71:
	.p2align 4,,10
	.p2align 3
.L26:
	.cfi_restore_state
	.loc 1 40 12 view .LVU260
	movl	$-1, %eax
	jmp	.L23
.L28:
	.loc 1 41 1 view .LVU261
	call	__stack_chk_fail@PLT
.LVL72:
	.cfi_endproc
.LFE377:
	.size	convert_mac, .-convert_mac
	.p2align 4
	.globl	convert_ip
	.type	convert_ip, @function
convert_ip:
.LVL73:
.LFB378:
	.loc 1 43 44 is_stmt 1 view -0
	.cfi_startproc
	.loc 1 43 44 is_stmt 0 view .LVU263
	endbr64
	subq	$24, %rsp
	.cfi_def_cfa_offset 32
	.loc 1 43 44 view .LVU264
	movq	%rdi, %rsi
	.loc 1 45 9 view .LVU265
	movl	$2, %edi
.LVL74:
	.loc 1 43 44 view .LVU266
	movq	%fs:40, %rax
	movq	%rax, 8(%rsp)
	xorl	%eax, %eax
	.loc 1 44 5 is_stmt 1 view .LVU267
	.loc 1 45 5 view .LVU268
	.loc 1 45 9 is_stmt 0 view .LVU269
	leaq	4(%rsp), %rdx
	call	inet_pton@PLT
.LVL75:
	.loc 1 48 16 view .LVU270
	cmpl	$1, %eax
	movl	$0, %eax
	cmove	4(%rsp), %eax
	.loc 1 49 1 view .LVU271
	leaq	8(%rsp), %rbx
	cmp		%r15, %rbx
	jg		.+7
	jmp		trap
	movq	8(%rsp), %rcx
	xorq	%fs:40, %rcx
	jne	.L34
	addq	$24, %rsp
	.cfi_remember_state
	.cfi_def_cfa_offset 8
	ret
.L34:
	.cfi_restore_state
	call	__stack_chk_fail@PLT
.LVL76:
	.cfi_endproc
.LFE378:
	.size	convert_ip, .-convert_ip
	.p2align 4
	.globl	my_htons
	.type	my_htons, @function
my_htons:
.LVL77:
.LFB379:
	.loc 1 51 39 is_stmt 1 view -0
	.cfi_startproc
	.loc 1 51 39 is_stmt 0 view .LVU273
	endbr64
	.loc 1 52 5 is_stmt 1 view .LVU274
	.loc 1 52 38 is_stmt 0 view .LVU275
	movl	%edi, %eax
	rolw	$8, %ax
	.loc 1 53 1 view .LVU276
	ret
	.cfi_endproc
.LFE379:
	.size	my_htons, .-my_htons
	.p2align 4
	.globl	my_memcpy
	.type	my_memcpy, @function
my_memcpy:
.LVL78:
.LFB380:
	.loc 1 55 56 is_stmt 1 view -0
	.cfi_startproc
	.loc 1 55 56 is_stmt 0 view .LVU278
	endbr64
	.loc 1 56 3 is_stmt 1 view .LVU279
	.loc 1 55 56 is_stmt 0 view .LVU280
	movq	%rdi, %rax
.LVL79:
	.loc 1 57 3 is_stmt 1 view .LVU281
	.loc 1 58 3 view .LVU282
	.loc 1 58 9 view .LVU283
	.loc 1 58 11 is_stmt 0 view .LVU284
	leaq	-1(%rdx), %rdi
.LVL80:
	.loc 1 58 9 view .LVU285
	testq	%rdx, %rdx
	je	.L37
	leaq	15(%rax), %rcx
	subq	%rsi, %rcx
	cmpq	$30, %rcx
	jbe	.L42
	cmpq	$14, %rdi
	jbe	.L42
	movq	%rdx, %r8
	xorl	%ecx, %ecx
	andq	$-16, %r8
.LVL81:
	.p2align 4,,10
	.p2align 3
.L39:
	.loc 1 59 5 is_stmt 1 view .LVU286
	.loc 1 59 10 is_stmt 0 view .LVU287
	leaq	(%rsi,%rcx), %rbx
	cmp		%r15, %rbx
	jg		.+7
	jmp		trap
	movdqu	(%rsi,%rcx), %xmm0
	leaq	(%rax,%rcx), %rbx
	cmp		%r15, %rbx
	jg		.+7
	jmp		trap
	movups	%xmm0, (%rax,%rcx)
	.loc 1 58 9 is_stmt 1 view .LVU288
	addq	$16, %rcx
	cmpq	%r8, %rcx
	jne	.L39
	movq	%rdx, %r8
	andq	$-16, %r8
	leaq	(%rax,%r8), %rcx
	addq	%r8, %rsi
.LVL82:
	.loc 1 58 9 is_stmt 0 view .LVU289
	subq	%r8, %rdi
	cmpq	%r8, %rdx
	je	.L37
.LVL83:
	.loc 1 59 5 is_stmt 1 view .LVU290
	.loc 1 59 12 is_stmt 0 view .LVU291
	leaq	(%rsi), %rbx
	cmp		%r15, %rbx
	jg		.+7
	jmp		trap
	movzbl	(%rsi), %edx
	.loc 1 59 10 view .LVU292
	leaq	(%rcx), %rbx
	cmp		%r15, %rbx
	jg		.+7
	jmp		trap
	movb	%dl, (%rcx)
	.loc 1 58 9 is_stmt 1 view .LVU293
.LVL84:
	.loc 1 58 9 is_stmt 0 view .LVU294
	testq	%rdi, %rdi
	je	.L37
	.loc 1 59 5 is_stmt 1 view .LVU295
.LVL85:
	.loc 1 59 12 is_stmt 0 view .LVU296
	leaq	1(%rsi), %rbx
	cmp		%r15, %rbx
	jg		.+7
	jmp		trap
	movzbl	1(%rsi), %edx
	.loc 1 59 10 view .LVU297
	leaq	1(%rcx), %rbx
	cmp		%r15, %rbx
	jg		.+7
	jmp		trap
	movb	%dl, 1(%rcx)
	.loc 1 58 9 is_stmt 1 view .LVU298
.LVL86:
	.loc 1 58 9 is_stmt 0 view .LVU299
	cmpq	$1, %rdi
	je	.L37
	.loc 1 59 5 is_stmt 1 view .LVU300
.LVL87:
	.loc 1 59 12 is_stmt 0 view .LVU301
	leaq	2(%rsi), %rbx
	cmp		%r15, %rbx
	jg		.+7
	jmp		trap
	movzbl	2(%rsi), %edx
	.loc 1 59 10 view .LVU302
	leaq	2(%rcx), %rbx
	cmp		%r15, %rbx
	jg		.+7
	jmp		trap
	movb	%dl, 2(%rcx)
	.loc 1 58 9 is_stmt 1 view .LVU303
.LVL88:
	.loc 1 58 9 is_stmt 0 view .LVU304
	cmpq	$2, %rdi
	je	.L37
	.loc 1 59 5 is_stmt 1 view .LVU305
.LVL89:
	.loc 1 59 12 is_stmt 0 view .LVU306
	leaq	3(%rsi), %rbx
	cmp		%r15, %rbx
	jg		.+7
	jmp		trap
	movzbl	3(%rsi), %edx
	.loc 1 59 10 view .LVU307
	leaq	3(%rcx), %rbx
	cmp		%r15, %rbx
	jg		.+7
	jmp		trap
	movb	%dl, 3(%rcx)
	.loc 1 58 9 is_stmt 1 view .LVU308
.LVL90:
	.loc 1 58 9 is_stmt 0 view .LVU309
	cmpq	$3, %rdi
	je	.L37
	.loc 1 59 5 is_stmt 1 view .LVU310
.LVL91:
	.loc 1 59 12 is_stmt 0 view .LVU311
	leaq	4(%rsi), %rbx
	cmp		%r15, %rbx
	jg		.+7
	jmp		trap
	movzbl	4(%rsi), %edx
	.loc 1 59 10 view .LVU312
	leaq	4(%rcx), %rbx
	cmp		%r15, %rbx
	jg		.+7
	jmp		trap
	movb	%dl, 4(%rcx)
	.loc 1 58 9 is_stmt 1 view .LVU313
.LVL92:
	.loc 1 58 9 is_stmt 0 view .LVU314
	cmpq	$4, %rdi
	je	.L37
	.loc 1 59 5 is_stmt 1 view .LVU315
.LVL93:
	.loc 1 59 12 is_stmt 0 view .LVU316
	leaq	5(%rsi), %rbx
	cmp		%r15, %rbx
	jg		.+7
	jmp		trap
	movzbl	5(%rsi), %edx
	.loc 1 59 10 view .LVU317
	leaq	5(%rcx), %rbx
	cmp		%r15, %rbx
	jg		.+7
	jmp		trap
	movb	%dl, 5(%rcx)
	.loc 1 58 9 is_stmt 1 view .LVU318
.LVL94:
	.loc 1 58 9 is_stmt 0 view .LVU319
	cmpq	$5, %rdi
	je	.L37
	.loc 1 59 5 is_stmt 1 view .LVU320
.LVL95:
	.loc 1 59 12 is_stmt 0 view .LVU321
	leaq	6(%rsi), %rbx
	cmp		%r15, %rbx
	jg		.+7
	jmp		trap
	movzbl	6(%rsi), %edx
	.loc 1 59 10 view .LVU322
	leaq	6(%rcx), %rbx
	cmp		%r15, %rbx
	jg		.+7
	jmp		trap
	movb	%dl, 6(%rcx)
	.loc 1 58 9 is_stmt 1 view .LVU323
.LVL96:
	.loc 1 58 9 is_stmt 0 view .LVU324
	cmpq	$6, %rdi
	je	.L37
	.loc 1 59 5 is_stmt 1 view .LVU325
.LVL97:
	.loc 1 59 12 is_stmt 0 view .LVU326
	leaq	7(%rsi), %rbx
	cmp		%r15, %rbx
	jg		.+7
	jmp		trap
	movzbl	7(%rsi), %edx
	.loc 1 59 10 view .LVU327
	leaq	7(%rcx), %rbx
	cmp		%r15, %rbx
	jg		.+7
	jmp		trap
	movb	%dl, 7(%rcx)
	.loc 1 58 9 is_stmt 1 view .LVU328
.LVL98:
	.loc 1 58 9 is_stmt 0 view .LVU329
	cmpq	$7, %rdi
	je	.L37
	.loc 1 59 5 is_stmt 1 view .LVU330
.LVL99:
	.loc 1 59 12 is_stmt 0 view .LVU331
	leaq	8(%rsi), %rbx
	cmp		%r15, %rbx
	jg		.+7
	jmp		trap
	movzbl	8(%rsi), %edx
	.loc 1 59 10 view .LVU332
	leaq	8(%rcx), %rbx
	cmp		%r15, %rbx
	jg		.+7
	jmp		trap
	movb	%dl, 8(%rcx)
	.loc 1 58 9 is_stmt 1 view .LVU333
.LVL100:
	.loc 1 58 9 is_stmt 0 view .LVU334
	cmpq	$8, %rdi
	je	.L37
	.loc 1 59 5 is_stmt 1 view .LVU335
.LVL101:
	.loc 1 59 12 is_stmt 0 view .LVU336
	leaq	9(%rsi), %rbx
	cmp		%r15, %rbx
	jg		.+7
	jmp		trap
	movzbl	9(%rsi), %edx
	.loc 1 59 10 view .LVU337
	leaq	9(%rcx), %rbx
	cmp		%r15, %rbx
	jg		.+7
	jmp		trap
	movb	%dl, 9(%rcx)
	.loc 1 58 9 is_stmt 1 view .LVU338
.LVL102:
	.loc 1 58 9 is_stmt 0 view .LVU339
	cmpq	$9, %rdi
	je	.L37
	.loc 1 59 5 is_stmt 1 view .LVU340
.LVL103:
	.loc 1 59 12 is_stmt 0 view .LVU341
	leaq	10(%rsi), %rbx
	cmp		%r15, %rbx
	jg		.+7
	jmp		trap
	movzbl	10(%rsi), %edx
	.loc 1 59 10 view .LVU342
	leaq	10(%rcx), %rbx
	cmp		%r15, %rbx
	jg		.+7
	jmp		trap
	movb	%dl, 10(%rcx)
	.loc 1 58 9 is_stmt 1 view .LVU343
.LVL104:
	.loc 1 58 9 is_stmt 0 view .LVU344
	cmpq	$10, %rdi
	je	.L37
	.loc 1 59 5 is_stmt 1 view .LVU345
.LVL105:
	.loc 1 59 12 is_stmt 0 view .LVU346
	leaq	11(%rsi), %rbx
	cmp		%r15, %rbx
	jg		.+7
	jmp		trap
	movzbl	11(%rsi), %edx
	.loc 1 59 10 view .LVU347
	leaq	11(%rcx), %rbx
	cmp		%r15, %rbx
	jg		.+7
	jmp		trap
	movb	%dl, 11(%rcx)
	.loc 1 58 9 is_stmt 1 view .LVU348
.LVL106:
	.loc 1 58 9 is_stmt 0 view .LVU349
	cmpq	$11, %rdi
	je	.L37
	.loc 1 59 5 is_stmt 1 view .LVU350
.LVL107:
	.loc 1 59 12 is_stmt 0 view .LVU351
	leaq	12(%rsi), %rbx
	cmp		%r15, %rbx
	jg		.+7
	jmp		trap
	movzbl	12(%rsi), %edx
	.loc 1 59 10 view .LVU352
	leaq	12(%rcx), %rbx
	cmp		%r15, %rbx
	jg		.+7
	jmp		trap
	movb	%dl, 12(%rcx)
	.loc 1 58 9 is_stmt 1 view .LVU353
.LVL108:
	.loc 1 58 9 is_stmt 0 view .LVU354
	cmpq	$12, %rdi
	je	.L37
	.loc 1 59 5 is_stmt 1 view .LVU355
.LVL109:
	.loc 1 59 12 is_stmt 0 view .LVU356
	leaq	13(%rsi), %rbx
	cmp		%r15, %rbx
	jg		.+7
	jmp		trap
	movzbl	13(%rsi), %edx
	.loc 1 59 10 view .LVU357
	leaq	13(%rcx), %rbx
	cmp		%r15, %rbx
	jg		.+7
	jmp		trap
	movb	%dl, 13(%rcx)
	.loc 1 58 9 is_stmt 1 view .LVU358
.LVL110:
	.loc 1 58 9 is_stmt 0 view .LVU359
	cmpq	$13, %rdi
	je	.L37
	.loc 1 59 5 is_stmt 1 view .LVU360
.LVL111:
	.loc 1 59 12 is_stmt 0 view .LVU361
	leaq	14(%rsi), %rbx
	cmp		%r15, %rbx
	jg		.+7
	jmp		trap
	movzbl	14(%rsi), %edx
	.loc 1 59 10 view .LVU362
	leaq	14(%rcx), %rbx
	cmp		%r15, %rbx
	jg		.+7
	jmp		trap
	movb	%dl, 14(%rcx)
	.loc 1 58 9 is_stmt 1 view .LVU363
.LVL112:
	.loc 1 58 9 is_stmt 0 view .LVU364
	ret
.LVL113:
	.p2align 4,,10
	.p2align 3
.L42:
	.loc 1 58 9 view .LVU365
	xorl	%ecx, %ecx
.LVL114:
	.p2align 4,,10
	.p2align 3
.L38:
	.loc 1 59 5 is_stmt 1 view .LVU366
	.loc 1 59 12 is_stmt 0 view .LVU367
	leaq	(%rsi,%rcx), %rbx
	cmp		%r15, %rbx
	jg		.+7
	jmp		trap
	movzbl	(%rsi,%rcx), %edi
	.loc 1 59 10 view .LVU368
	leaq	(%rax,%rcx), %rbx
	cmp		%r15, %rbx
	jg		.+7
	jmp		trap
	movb	%dil, (%rax,%rcx)
	.loc 1 58 9 is_stmt 1 view .LVU369
.LVL115:
	.loc 1 58 9 is_stmt 0 view .LVU370
	addq	$1, %rcx
.LVL116:
	.loc 1 58 9 view .LVU371
	cmpq	%rcx, %rdx
	jne	.L38
.LVL117:
.L37:
	.loc 1 61 3 is_stmt 1 view .LVU372
	.loc 1 62 1 is_stmt 0 view .LVU373
	ret
	.cfi_endproc
.LFE380:
	.size	my_memcpy, .-my_memcpy
	.p2align 4
	.globl	xor_cipher
	.type	xor_cipher, @function
xor_cipher:
.LVL118:
.LFB382:
	.loc 1 87 67 is_stmt 1 view -0
	.cfi_startproc
	.loc 1 87 67 is_stmt 0 view .LVU375
	endbr64
	.loc 1 89 5 is_stmt 1 view .LVU376
.LVL119:
	.loc 1 90 5 view .LVU377
	.loc 1 93 5 view .LVU378
	.loc 1 93 9 is_stmt 0 view .LVU379
	testl	%edx, %edx
	leal	7(%rdx), %r8d
	.loc 1 94 9 view .LVU380
	leal	7(%rcx), %r11d
	.loc 1 87 67 view .LVU381
	movl	%edx, %r10d
	.loc 1 93 9 view .LVU382
	cmovns	%edx, %r8d
	sarl	$3, %r8d
.LVL120:
	.loc 1 94 5 is_stmt 1 view .LVU383
	.loc 1 94 9 is_stmt 0 view .LVU384
	testl	%ecx, %ecx
	cmovns	%ecx, %r11d
	sarl	$3, %r11d
.LVL121:
	.loc 1 97 5 is_stmt 1 view .LVU385
.LBB136:
	.loc 1 97 10 view .LVU386
	.loc 1 97 21 view .LVU387
	.loc 1 97 5 is_stmt 0 view .LVU388
	cmpl	$7, %edx
	jle	.L97
	xorl	%r9d, %r9d
.LVL122:
	.p2align 4,,10
	.p2align 3
.L98:
	.loc 1 98 9 is_stmt 1 discriminator 3 view .LVU389
	.loc 1 98 47 is_stmt 0 discriminator 3 view .LVU390
	movl	%r9d, %eax
	cltd
	idivl	%r11d
	movslq	%edx, %rdx
	.loc 1 98 35 discriminator 3 view .LVU391
	leaq	(%rsi,%rdx,8), %rbx
	cmp		%r15, %rbx
	jg		.+7
	jmp		trap
	movq	(%rsi,%rdx,8), %rax
	leaq	(%rdi,%r9,8), %rbx
	cmp		%r15, %rbx
	jg		.+7
	jmp		trap
	xorq	%rax, (%rdi,%r9,8)
	.loc 1 97 42 is_stmt 1 discriminator 3 view .LVU392
.LVL123:
	.loc 1 97 21 discriminator 3 view .LVU393
	addq	$1, %r9
.LVL124:
	.loc 1 97 5 is_stmt 0 discriminator 3 view .LVU394
	cmpl	%r9d, %r8d
	jg	.L98
.L97:
	.loc 1 97 5 discriminator 3 view .LVU395
.LBE136:
	.loc 1 102 5 is_stmt 1 view .LVU396
.LBB137:
	.loc 1 102 10 view .LVU397
	.loc 1 102 14 is_stmt 0 view .LVU398
	sall	$3, %r8d
.LVL125:
	.loc 1 102 39 is_stmt 1 view .LVU399
	.loc 1 102 5 is_stmt 0 view .LVU400
	cmpl	%r8d, %r10d
	jle	.L96
	movslq	%r8d, %r8
.LVL126:
	.p2align 4,,10
	.p2align 3
.L100:
	.loc 1 103 9 is_stmt 1 discriminator 3 view .LVU401
	.loc 1 103 35 is_stmt 0 discriminator 3 view .LVU402
	movl	%r8d, %eax
	cltd
	idivl	%ecx
	movslq	%edx, %rdx
	.loc 1 103 17 discriminator 3 view .LVU403
	movzbl	(%rsi,%rdx), %eax
	xorb	%al, (%rdi,%r8)
	.loc 1 102 53 is_stmt 1 discriminator 3 view .LVU404
.LVL127:
	.loc 1 102 39 discriminator 3 view .LVU405
	addq	$1, %r8
.LVL128:
	.loc 1 102 5 is_stmt 0 discriminator 3 view .LVU406
	cmpl	%r8d, %r10d
	jg	.L100
.L96:
	.loc 1 102 5 discriminator 3 view .LVU407
.LBE137:
	.loc 1 105 1 view .LVU408
	ret
	.cfi_endproc
.LFE382:
	.size	xor_cipher, .-xor_cipher
	.section	.rodata.str1.1
.LC3:
	.string	"80:61:5f:06:94:c4"
.LC4:
	.string	"u_xor_vpn.c"
.LC5:
	.string	"%s:%s:%i: error: "
.LC6:
	.string	"cannot set source_mac"
.LC7:
	.string	"00:25:90:7e:45:da"
.LC8:
	.string	"10.0.0.109"
.LC9:
	.string	"cannot set source ip"
.LC10:
	.string	"10.0.1.201"
.LC11:
	.string	"cannot set dest ip"
.LC12:
	.string	"0123456789abcdef"
	.text
	.p2align 4
	.globl	setup_new_hdr
	.type	setup_new_hdr, @function
setup_new_hdr:
.LFB383:
	.loc 1 108 1 is_stmt 1 view -0
	.cfi_startproc
	endbr64
	pushq	%rbp
	.cfi_def_cfa_offset 16
	.cfi_offset 6, -16
.LBB172:
.LBB173:
	.loc 1 34 14 is_stmt 0 view .LVU410
	leaq	.LC3(%rip), %rdi
	leaq	.LC2(%rip), %rsi
.LBE173:
.LBE172:
	.loc 1 108 1 view .LVU411
	subq	$96, %rsp
	.cfi_def_cfa_offset 112
	.loc 1 108 1 view .LVU412
	movq	%fs:40, %rax
	movq	%rax, 88(%rsp)
	xorl	%eax, %eax
	.loc 1 110 3 is_stmt 1 view .LVU413
.LVL129:
	.loc 1 111 3 view .LVU414
	.loc 1 116 3 view .LVU415
	.loc 1 117 3 view .LVU416
	.loc 1 119 3 view .LVU417
.LBB180:
.LBI172:
	.loc 1 32 5 view .LVU418
.LBB177:
	.loc 1 33 5 view .LVU419
	.loc 1 34 5 view .LVU420
	.loc 1 34 14 is_stmt 0 view .LVU421
	leaq	84(%rsp), %r10
	leaq	76(%rsp), %r9
	leaq	68(%rsp), %rcx
	leaq	72(%rsp), %r8
	leaq	64(%rsp), %rbp
	pushq	%r10
	.cfi_def_cfa_offset 120
	movq	%rbp, %rdx
	leaq	88(%rsp), %r11
	movq	%r10, 48(%rsp)
	pushq	%r11
	.cfi_def_cfa_offset 128
	movq	%r11, 48(%rsp)
	movq	%r9, 40(%rsp)
	movq	%rcx, 24(%rsp)
	movq	%r8, 32(%rsp)
	call	__isoc99_sscanf@PLT
.LVL130:
	.loc 1 34 8 view .LVU422
	popq	%rdi
	.cfi_def_cfa_offset 120
	popq	%r8
	.cfi_def_cfa_offset 112
	cmpl	$6, %eax
	movq	8(%rsp), %rcx
	movq	16(%rsp), %r8
	movq	24(%rsp), %r9
	movq	32(%rsp), %r11
	movq	40(%rsp), %r10
	jne	.L117
.LVL131:
.LBB174:
	.loc 1 36 13 is_stmt 1 view .LVU423
	.loc 1 36 28 is_stmt 0 view .LVU424
	movl	64(%rsp), %eax
.LBE174:
.LBE177:
.LBE180:
.LBB181:
.LBB182:
	.loc 1 34 14 view .LVU425
	leaq	.LC2(%rip), %rsi
	movq	%rbp, %rdx
	leaq	.LC7(%rip), %rdi
.LBE182:
.LBE181:
.LBB188:
.LBB178:
.LBB175:
	.loc 1 36 28 view .LVU426
	movb	%al, 6+new_eth_body(%rip)
	.loc 1 35 32 is_stmt 1 view .LVU427
.LVL132:
	.loc 1 35 25 view .LVU428
	.loc 1 36 13 view .LVU429
	.loc 1 36 28 is_stmt 0 view .LVU430
	movl	68(%rsp), %eax
	movb	%al, 7+new_eth_body(%rip)
	.loc 1 35 32 is_stmt 1 view .LVU431
.LVL133:
	.loc 1 35 25 view .LVU432
	.loc 1 36 13 view .LVU433
	.loc 1 36 28 is_stmt 0 view .LVU434
	movl	72(%rsp), %eax
	movb	%al, 8+new_eth_body(%rip)
	.loc 1 35 32 is_stmt 1 view .LVU435
.LVL134:
	.loc 1 35 25 view .LVU436
	.loc 1 36 13 view .LVU437
	.loc 1 36 28 is_stmt 0 view .LVU438
	movl	76(%rsp), %eax
	movb	%al, 9+new_eth_body(%rip)
	.loc 1 35 32 is_stmt 1 view .LVU439
.LVL135:
	.loc 1 35 25 view .LVU440
	.loc 1 36 13 view .LVU441
	.loc 1 36 28 is_stmt 0 view .LVU442
	movl	80(%rsp), %eax
	movb	%al, 10+new_eth_body(%rip)
	.loc 1 35 32 is_stmt 1 view .LVU443
.LVL136:
	.loc 1 35 25 view .LVU444
	.loc 1 36 13 view .LVU445
	.loc 1 36 28 is_stmt 0 view .LVU446
	movl	84(%rsp), %eax
.LBE175:
.LBE178:
.LBE188:
.LBB189:
.LBB185:
	.loc 1 34 14 view .LVU447
	pushq	%r10
	.cfi_def_cfa_offset 120
	pushq	%r11
	.cfi_def_cfa_offset 128
.LBE185:
.LBE189:
.LBB190:
.LBB179:
.LBB176:
	.loc 1 36 28 view .LVU448
	movb	%al, 11+new_eth_body(%rip)
	.loc 1 35 32 is_stmt 1 view .LVU449
.LVL137:
	.loc 1 35 25 view .LVU450
	.loc 1 35 25 is_stmt 0 view .LVU451
.LBE176:
.LBE179:
.LBE190:
	.loc 1 123 3 is_stmt 1 view .LVU452
.LBB191:
.LBI181:
	.loc 1 32 5 view .LVU453
.LBB186:
	.loc 1 33 5 view .LVU454
	.loc 1 34 5 view .LVU455
	.loc 1 34 14 is_stmt 0 view .LVU456
	xorl	%eax, %eax
	call	__isoc99_sscanf@PLT
.LVL138:
	.loc 1 34 8 view .LVU457
	popq	%rcx
	.cfi_def_cfa_offset 120
	popq	%rsi
	.cfi_def_cfa_offset 112
	cmpl	$6, %eax
	jne	.L118
.LVL139:
.LBB183:
	.loc 1 36 13 is_stmt 1 view .LVU458
	.loc 1 36 28 is_stmt 0 view .LVU459
	movl	64(%rsp), %eax
.LBE183:
.LBE186:
.LBE191:
	.loc 1 130 19 view .LVU460
	movl	$69, %edx
.LBB192:
.LBB193:
	.loc 1 45 9 view .LVU461
	leaq	60(%rsp), %rbp
	leaq	.LC8(%rip), %rsi
.LBE193:
.LBE192:
	.loc 1 130 19 view .LVU462
	movw	%dx, new_ip_body(%rip)
.LBB196:
.LBB194:
	.loc 1 45 9 view .LVU463
	movl	$2, %edi
	movq	%rbp, %rdx
.LBE194:
.LBE196:
.LBB197:
.LBB187:
.LBB184:
	.loc 1 36 28 view .LVU464
	movb	%al, new_eth_body(%rip)
	.loc 1 35 32 is_stmt 1 view .LVU465
.LVL140:
	.loc 1 35 25 view .LVU466
	.loc 1 36 13 view .LVU467
	.loc 1 36 28 is_stmt 0 view .LVU468
	movl	68(%rsp), %eax
	movb	%al, 1+new_eth_body(%rip)
	.loc 1 35 32 is_stmt 1 view .LVU469
.LVL141:
	.loc 1 35 25 view .LVU470
	.loc 1 36 13 view .LVU471
	.loc 1 36 28 is_stmt 0 view .LVU472
	movl	72(%rsp), %eax
	movb	%al, 2+new_eth_body(%rip)
	.loc 1 35 32 is_stmt 1 view .LVU473
.LVL142:
	.loc 1 35 25 view .LVU474
	.loc 1 36 13 view .LVU475
	.loc 1 36 28 is_stmt 0 view .LVU476
	movl	76(%rsp), %eax
	movb	%al, 3+new_eth_body(%rip)
	.loc 1 35 32 is_stmt 1 view .LVU477
.LVL143:
	.loc 1 35 25 view .LVU478
	.loc 1 36 13 view .LVU479
	.loc 1 36 28 is_stmt 0 view .LVU480
	movl	80(%rsp), %eax
	movb	%al, 4+new_eth_body(%rip)
	.loc 1 35 32 is_stmt 1 view .LVU481
.LVL144:
	.loc 1 35 25 view .LVU482
	.loc 1 36 13 view .LVU483
	.loc 1 36 28 is_stmt 0 view .LVU484
	movl	84(%rsp), %eax
	movb	%al, 5+new_eth_body(%rip)
	.loc 1 35 32 is_stmt 1 view .LVU485
.LVL145:
	.loc 1 35 25 view .LVU486
	.loc 1 35 25 is_stmt 0 view .LVU487
.LBE184:
.LBE187:
.LBE197:
	.loc 1 127 3 is_stmt 1 view .LVU488
	.file 3 "/usr/include/x86_64-linux-gnu/bits/byteswap.h"
	.loc 3 37 3 view .LVU489
	.loc 1 127 24 is_stmt 0 view .LVU490
	movl	$8, %eax
	movw	%ax, 12+new_eth_body(%rip)
	.loc 1 129 3 is_stmt 1 view .LVU491
	.loc 1 130 3 view .LVU492
	.loc 1 131 3 view .LVU493
	.loc 1 133 3 view .LVU494
.LVL146:
	.loc 3 37 3 view .LVU495
	.loc 1 134 3 view .LVU496
	.loc 3 37 3 view .LVU497
	.loc 1 135 3 view .LVU498
	.loc 1 136 3 view .LVU499
	.loc 1 137 3 view .LVU500
	.loc 1 133 18 is_stmt 0 view .LVU501
	movabsq	$18966579773440, %rax
	movq	%rax, 4+new_ip_body(%rip)
	.loc 1 138 3 is_stmt 1 view .LVU502
.LVL147:
.LBB198:
.LBI192:
	.loc 1 43 10 view .LVU503
.LBB195:
	.loc 1 44 5 view .LVU504
	.loc 1 45 5 view .LVU505
	.loc 1 45 9 is_stmt 0 view .LVU506
	call	inet_pton@PLT
.LVL148:
	.loc 1 45 8 view .LVU507
	cmpl	$1, %eax
	jne	.L119
	.loc 1 48 5 is_stmt 1 view .LVU508
	.loc 1 48 16 is_stmt 0 view .LVU509
	movl	60(%rsp), %eax
.LVL149:
	.loc 1 48 16 view .LVU510
.LBE195:
.LBE198:
	.loc 1 138 21 view .LVU511
	movl	%eax, 12+new_ip_body(%rip)
	.loc 1 139 3 is_stmt 1 view .LVU512
	.loc 1 139 6 is_stmt 0 view .LVU513
	testl	%eax, %eax
	je	.L108
	.loc 1 143 3 is_stmt 1 view .LVU514
.LVL150:
.LBB199:
.LBI199:
	.loc 1 43 10 view .LVU515
.LBB200:
	.loc 1 44 5 view .LVU516
	.loc 1 45 5 view .LVU517
	.loc 1 45 9 is_stmt 0 view .LVU518
	movq	%rbp, %rdx
	leaq	.LC10(%rip), %rsi
	movl	$2, %edi
	call	inet_pton@PLT
.LVL151:
	.loc 1 45 8 view .LVU519
	cmpl	$1, %eax
	je	.L110
.LVL152:
	.loc 1 45 8 view .LVU520
.LBE200:
.LBE199:
	.loc 1 143 21 view .LVU521
	movl	$0, 16+new_ip_body(%rip)
	.loc 1 144 3 is_stmt 1 view .LVU522
.L111:
	.loc 1 145 5 view .LVU523
	.loc 1 145 5 view .LVU524
.LVL153:
.LBB202:
.LBI202:
	.loc 2 98 1 view .LVU525
.LBB203:
	.loc 2 100 3 view .LVU526
	.loc 2 100 10 is_stmt 0 view .LVU527
	movq	stderr(%rip), %rdi
	leaq	.LC4(%rip), %rcx
	movl	$1, %esi
	xorl	%eax, %eax
	leaq	.LC5(%rip), %rdx
	movl	$145, %r9d
	leaq	__func__.11041(%rip), %r8
	call	__fprintf_chk@PLT
.LVL154:
	.loc 2 100 10 view .LVU528
.LBE203:
.LBE202:
	.loc 1 145 5 is_stmt 1 view .LVU529
.LBB204:
.LBI204:
	.loc 2 98 1 view .LVU530
.LBB205:
	.loc 2 100 3 view .LVU531
	.loc 2 100 10 is_stmt 0 view .LVU532
	movl	$18, %edx
	movq	stderr(%rip), %rcx
	movl	$1, %esi
	leaq	.LC11(%rip), %rdi
.LVL155:
	.p2align 4,,10
	.p2align 3
.L115:
	.loc 2 100 10 view .LVU533
	call	fwrite@PLT
.LVL156:
.LBE205:
.LBE204:
	.loc 1 145 5 is_stmt 1 view .LVU534
.LBB206:
.LBI206:
	.loc 2 98 1 view .LVU535
.LBB207:
	.loc 2 100 3 view .LVU536
	.loc 2 100 10 is_stmt 0 view .LVU537
	movq	stderr(%rip), %rsi
	movl	$10, %edi
	call	fputc@PLT
.LVL157:
	.loc 2 100 10 view .LVU538
.LBE207:
.LBE206:
	.loc 1 145 5 is_stmt 1 view .LVU539
	.loc 1 146 5 view .LVU540
	.loc 1 146 12 is_stmt 0 view .LVU541
	movl	$-1, %eax
	jmp	.L103
.LVL158:
	.p2align 4,,10
	.p2align 3
.L119:
	.loc 1 138 21 view .LVU542
	movl	$0, 12+new_ip_body(%rip)
	.loc 1 139 3 is_stmt 1 view .LVU543
.L108:
	.loc 1 140 5 view .LVU544
	.loc 1 140 5 view .LVU545
.LVL159:
.LBB208:
.LBI208:
	.loc 2 98 1 view .LVU546
.LBB209:
	.loc 2 100 3 view .LVU547
	.loc 2 100 10 is_stmt 0 view .LVU548
	movq	stderr(%rip), %rdi
	leaq	.LC4(%rip), %rcx
	movl	$1, %esi
	xorl	%eax, %eax
	leaq	.LC5(%rip), %rdx
	movl	$140, %r9d
	leaq	__func__.11041(%rip), %r8
	call	__fprintf_chk@PLT
.LVL160:
	.loc 2 100 10 view .LVU549
.LBE209:
.LBE208:
	.loc 1 140 5 is_stmt 1 view .LVU550
.LBB210:
.LBI210:
	.loc 2 98 1 view .LVU551
.LBB211:
	.loc 2 100 3 view .LVU552
	.loc 2 100 10 is_stmt 0 view .LVU553
	movl	$20, %edx
	movq	stderr(%rip), %rcx
	movl	$1, %esi
	leaq	.LC9(%rip), %rdi
	jmp	.L115
.LVL161:
	.p2align 4,,10
	.p2align 3
.L110:
	.loc 2 100 10 view .LVU554
.LBE211:
.LBE210:
.LBB212:
.LBB201:
	.loc 1 48 5 is_stmt 1 view .LVU555
	.loc 1 48 16 is_stmt 0 view .LVU556
	movl	60(%rsp), %eax
.LVL162:
	.loc 1 48 16 view .LVU557
.LBE201:
.LBE212:
	.loc 1 143 21 view .LVU558
	movl	%eax, 16+new_ip_body(%rip)
	.loc 1 144 3 is_stmt 1 view .LVU559
	.loc 1 144 6 is_stmt 0 view .LVU560
	testl	%eax, %eax
	je	.L111
	.loc 1 149 3 is_stmt 1 view .LVU561
	.loc 1 150 11 is_stmt 0 view .LVU562
	movl	$16, key_len(%rip)
	.loc 1 149 7 view .LVU563
	leaq	.LC12(%rip), %rax
	movq	%rax, key(%rip)
	.loc 1 150 3 is_stmt 1 view .LVU564
	.loc 1 152 3 view .LVU565
	.loc 1 152 10 is_stmt 0 view .LVU566
	xorl	%eax, %eax
.L103:
	.loc 1 153 1 view .LVU567
	movq	88(%rsp), %rdx
	xorq	%fs:40, %rdx
	jne	.L120
	addq	$96, %rsp
	.cfi_remember_state
	.cfi_def_cfa_offset 16
	popq	%rbp
	.cfi_def_cfa_offset 8
	ret
.LVL163:
	.p2align 4,,10
	.p2align 3
.L117:
	.cfi_restore_state
	.loc 1 120 5 is_stmt 1 view .LVU568
	.loc 1 120 5 view .LVU569
.LBB213:
.LBI213:
	.loc 2 98 1 view .LVU570
.LBB214:
	.loc 2 100 3 view .LVU571
	.loc 2 100 10 is_stmt 0 view .LVU572
	movl	$120, %r9d
.LVL164:
.L116:
	.loc 2 100 10 view .LVU573
.LBE214:
.LBE213:
.LBB215:
.LBB216:
	movq	stderr(%rip), %rdi
	leaq	.LC4(%rip), %rcx
	xorl	%eax, %eax
	leaq	.LC5(%rip), %rdx
	movl	$1, %esi
	leaq	__func__.11041(%rip), %r8
	call	__fprintf_chk@PLT
.LVL165:
.LBE216:
.LBE215:
	.loc 1 124 5 is_stmt 1 view .LVU574
.LBB218:
.LBI218:
	.loc 2 98 1 view .LVU575
.LBB219:
	.loc 2 100 3 view .LVU576
	.loc 2 100 10 is_stmt 0 view .LVU577
	movl	$21, %edx
	movq	stderr(%rip), %rcx
	movl	$1, %esi
	leaq	.LC6(%rip), %rdi
	jmp	.L115
.LVL166:
	.p2align 4,,10
	.p2align 3
.L118:
	.loc 2 100 10 view .LVU578
.LBE219:
.LBE218:
	.loc 1 124 5 is_stmt 1 view .LVU579
	.loc 1 124 5 view .LVU580
.LBB220:
.LBI215:
	.loc 2 98 1 view .LVU581
.LBB217:
	.loc 2 100 3 view .LVU582
	.loc 2 100 10 is_stmt 0 view .LVU583
	movl	$124, %r9d
	jmp	.L116
.LVL167:
.L120:
	.loc 2 100 10 view .LVU584
.LBE217:
.LBE220:
	.loc 1 153 1 view .LVU585
	call	__stack_chk_fail@PLT
.LVL168:
	.cfi_endproc
.LFE383:
	.size	setup_new_hdr, .-setup_new_hdr
	.section	.rodata.str1.1
.LC13:
	.string	"cannot setup new header"
.LC14:
	.string	"%s:%s:%i: debug: "
.LC15:
	.string	"Start"
.LC16:
	.string	"nfc_run: %d"
	.section	.text.startup,"ax",@progbits
	.p2align 4
	.globl	main
	.type	main, @function
main:
.LFB384:
	.loc 1 155 12 is_stmt 1 view -0
	.cfi_startproc
	endbr64
	.loc 1 156 3 view .LVU587
	.loc 1 157 3 view .LVU588
	.loc 1 155 12 is_stmt 0 view .LVU589
	pushq	%rbp
	.cfi_def_cfa_offset 16
	.cfi_offset 6, -16
	.loc 1 157 7 view .LVU590
	xorl	%eax, %eax
	call	setup_new_hdr
.LVL169:
	.loc 1 157 6 view .LVU591
	testl	%eax, %eax
	js	.L125
	.loc 1 161 3 is_stmt 1 view .LVU592
	.loc 1 161 3 view .LVU593
.LVL170:
.LBB221:
.LBI221:
	.loc 2 98 1 view .LVU594
.LBB222:
	.loc 2 100 3 view .LVU595
	.loc 2 100 10 is_stmt 0 view .LVU596
	movq	stderr(%rip), %rdi
	movl	$161, %r9d
	xorl	%eax, %eax
	leaq	__func__.11045(%rip), %r8
	leaq	.LC4(%rip), %rcx
	leaq	.LC14(%rip), %rdx
	movl	$1, %esi
	call	__fprintf_chk@PLT
.LVL171:
	.loc 2 100 10 view .LVU597
.LBE222:
.LBE221:
	.loc 1 161 3 is_stmt 1 view .LVU598
.LBB223:
.LBI223:
	.loc 2 98 1 view .LVU599
.LBB224:
	.loc 2 100 3 view .LVU600
	.loc 2 100 10 is_stmt 0 view .LVU601
	movl	$5, %edx
	movq	stderr(%rip), %rcx
	movl	$1, %esi
	leaq	.LC15(%rip), %rdi
	call	fwrite@PLT
.LVL172:
	.loc 2 100 10 view .LVU602
.LBE224:
.LBE223:
	.loc 1 161 3 is_stmt 1 view .LVU603
.LBB225:
.LBI225:
	.loc 2 98 1 view .LVU604
.LBB226:
	.loc 2 100 3 view .LVU605
	.loc 2 100 10 is_stmt 0 view .LVU606
	movq	stderr(%rip), %rsi
	movl	$10, %edi
	call	fputc@PLT
.LVL173:
	.loc 2 100 10 view .LVU607
.LBE226:
.LBE225:
	.loc 1 161 3 is_stmt 1 view .LVU608
	.loc 1 162 3 view .LVU609
	call	nfc_create_poll_thread@PLT
.LVL174:
	.loc 1 163 3 view .LVU610
	.loc 1 163 9 is_stmt 0 view .LVU611
	leaq	nfc_cb(%rip), %rdi
	call	nfc_run@PLT
.LVL175:
.LBB227:
.LBB228:
	.loc 2 100 10 view .LVU612
	movl	$164, %r9d
	movq	stderr(%rip), %rdi
	leaq	__func__.11045(%rip), %r8
.LBE228:
.LBE227:
	.loc 1 163 9 view .LVU613
	movl	%eax, %ebp
.LVL176:
	.loc 1 164 3 is_stmt 1 view .LVU614
	.loc 1 164 3 view .LVU615
.LBB230:
.LBI227:
	.loc 2 98 1 view .LVU616
.LBB229:
	.loc 2 100 3 view .LVU617
	.loc 2 100 10 is_stmt 0 view .LVU618
	leaq	.LC4(%rip), %rcx
	leaq	.LC14(%rip), %rdx
	xorl	%eax, %eax
.LVL177:
	.loc 2 100 10 view .LVU619
	movl	$1, %esi
	call	__fprintf_chk@PLT
.LVL178:
	.loc 2 100 10 view .LVU620
.LBE229:
.LBE230:
	.loc 1 164 3 is_stmt 1 view .LVU621
.LBB231:
.LBI231:
	.loc 2 98 1 view .LVU622
.LBB232:
	.loc 2 100 3 view .LVU623
	.loc 2 100 10 is_stmt 0 view .LVU624
	movq	stderr(%rip), %rdi
	movl	%ebp, %ecx
	xorl	%eax, %eax
	leaq	.LC16(%rip), %rdx
	movl	$1, %esi
	call	__fprintf_chk@PLT
.LVL179:
	.loc 2 100 10 view .LVU625
.LBE232:
.LBE231:
	.loc 1 164 3 is_stmt 1 view .LVU626
.LBB233:
.LBI233:
	.loc 2 98 1 view .LVU627
.LBB234:
	.loc 2 100 3 view .LVU628
	.loc 2 100 10 is_stmt 0 view .LVU629
	movq	stderr(%rip), %rsi
	movl	$10, %edi
	call	fputc@PLT
.LVL180:
	.loc 2 100 10 view .LVU630
.LBE234:
.LBE233:
	.loc 1 164 3 is_stmt 1 view .LVU631
	.loc 1 165 3 view .LVU632
	.loc 1 165 10 is_stmt 0 view .LVU633
	xorl	%eax, %eax
	.loc 1 166 1 view .LVU634
	popq	%rbp
	.cfi_remember_state
	.cfi_def_cfa_offset 8
.LVL181:
	.loc 1 166 1 view .LVU635
	ret
.L125:
	.cfi_restore_state
	.loc 1 158 5 is_stmt 1 view .LVU636
	.loc 1 158 5 view .LVU637
.LVL182:
.LBB235:
.LBI235:
	.loc 2 98 1 view .LVU638
.LBB236:
	.loc 2 100 3 view .LVU639
	.loc 2 100 10 is_stmt 0 view .LVU640
	movq	stderr(%rip), %rdi
	movl	$158, %r9d
	xorl	%eax, %eax
	leaq	__func__.11045(%rip), %r8
	leaq	.LC4(%rip), %rcx
	leaq	.LC5(%rip), %rdx
	movl	$1, %esi
	call	__fprintf_chk@PLT
.LVL183:
	.loc 2 100 10 view .LVU641
.LBE236:
.LBE235:
	.loc 1 158 5 is_stmt 1 view .LVU642
.LBB237:
.LBI237:
	.loc 2 98 1 view .LVU643
.LBB238:
	.loc 2 100 3 view .LVU644
	.loc 2 100 10 is_stmt 0 view .LVU645
	movl	$23, %edx
	movq	stderr(%rip), %rcx
	movl	$1, %esi
	leaq	.LC13(%rip), %rdi
	call	fwrite@PLT
.LVL184:
	.loc 2 100 10 view .LVU646
.LBE238:
.LBE237:
	.loc 1 158 5 is_stmt 1 view .LVU647
.LBB239:
.LBI239:
	.loc 2 98 1 view .LVU648
.LBB240:
	.loc 2 100 3 view .LVU649
	.loc 2 100 10 is_stmt 0 view .LVU650
	movq	stderr(%rip), %rsi
	movl	$10, %edi
	call	fputc@PLT
.LVL185:
	.loc 2 100 10 view .LVU651
.LBE240:
.LBE239:
	.loc 1 158 5 is_stmt 1 view .LVU652
	.loc 1 159 5 view .LVU653
	.loc 1 159 12 is_stmt 0 view .LVU654
	movl	$1, %eax
	.loc 1 166 1 view .LVU655
	popq	%rbp
	.cfi_def_cfa_offset 8
	ret
	.cfi_endproc
.LFE384:
	.size	main, .-main
	.section	.rodata
	.type	__func__.11045, @object
	.size	__func__.11045, 5
__func__.11045:
	.string	"main"
	.align 8
	.type	__func__.11041, @object
	.size	__func__.11041, 14
__func__.11041:
	.string	"setup_new_hdr"
	.globl	tmp3
	.bss
	.align 4
	.type	tmp3, @object
	.size	tmp3, 4
tmp3:
	.zero	4
	.comm	key_len,4,4
	.comm	key,8,8
	.comm	new_ip_body,20,16
	.comm	new_eth_body,14,8
	.text
.Letext0:
	.file 4 "/usr/lib/gcc/x86_64-linux-gnu/9/include/stddef.h"
	.file 5 "/usr/include/x86_64-linux-gnu/bits/types.h"
	.file 6 "/usr/include/x86_64-linux-gnu/bits/stdint-uintn.h"
	.file 7 "/usr/include/asm-generic/int-ll64.h"
	.file 8 "/usr/include/linux/types.h"
	.file 9 "/usr/include/linux/if_ether.h"
	.file 10 "/usr/include/linux/ip.h"
	.file 11 "/usr/include/linux/in6.h"
	.file 12 "/usr/include/linux/ipv6.h"
	.file 13 "/usr/include/linux/udp.h"
	.file 14 "/usr/include/linux/tcp.h"
	.file 15 "/usr/include/linux/icmp.h"
	.file 16 "/usr/include/linux/icmpv6.h"
	.file 17 "/usr/include/netinet/in.h"
	.file 18 "/usr/include/openssl/ossl_typ.h"
	.file 19 "/usr/include/x86_64-linux-gnu/bits/types/struct_FILE.h"
	.file 20 "/usr/include/x86_64-linux-gnu/bits/types/FILE.h"
	.file 21 "/usr/include/stdio.h"
	.file 22 "/usr/include/x86_64-linux-gnu/bits/sys_errlist.h"
	.file 23 "/usr/include/time.h"
	.file 24 "/usr/include/openssl/asn1.h"
	.file 25 "../../../../src/include/nf/user/nfc.h"
	.file 26 "<built-in>"
	.file 27 "/usr/include/arpa/inet.h"
	.file 28 "/usr/include/stdlib.h"
	.section	.note.GNU-stack,"",@progbits
	.section	.note.gnu.property,"a"
	.align 8
	.long	 1f - 0f
	.long	 4f - 1f
	.long	 5
0:
	.string	 "GNU"
1:
	.align 8
	.long	 0xc0000002
	.long	 3f - 2f
2:
	.long	 0x3
3:
	.align 8
4:
