	.file	"u_firewall.c"
	.text
.Ltext0:
	.section	.rodata.str1.1,"aMS",@progbits,1
.LC0:
	.string	"i at after : %d\n"
	.text
	.p2align 4
	.globl	nfc_cb
	.type	nfc_cb, @function
nfc_cb:
.LVL0:
.LFB88:
	.file 1 "u_firewall.c"
	.loc 1 136 32 view -0
	.cfi_startproc
	.loc 1 136 32 is_stmt 0 view .LVU1
	endbr64
	.loc 1 138 3 is_stmt 1 view .LVU2
	.loc 1 139 3 view .LVU3
.LVL1:
	.loc 1 140 3 view .LVU4
	.loc 1 141 3 view .LVU5
	.loc 1 142 3 view .LVU6
	.loc 1 143 3 view .LVU7
	.loc 1 144 3 view .LVU8
	.loc 1 145 3 view .LVU9
	.loc 1 146 3 view .LVU10
	.loc 1 147 3 view .LVU11
	.loc 1 136 32 is_stmt 0 view .LVU12
	pushq	%rbp
	.cfi_def_cfa_offset 16
	.cfi_offset 6, -16
	subq	$80, %rsp
	.cfi_def_cfa_offset 96
	.loc 1 147 10 view .LVU13
	// R3 omit
	// leaq	12(%rdi), %rbx
	// cmp		%r13, %rbx
	// jg		.+7
	// jmp		trap
	// leaq	13(%rdi), %rbx
	// cmp		%r14, %rbx
	// jl		.+7
	// jmp		trap
	movzwl	12(%rdi), %eax
.LVL2:
	.loc 1 28 5 is_stmt 1 view .LVU14
	.loc 1 147 6 is_stmt 0 view .LVU15
	cmpw	$8, %ax
	je	.L128
	.loc 1 160 10 is_stmt 1 view .LVU16
.LVL3:
	.loc 1 28 5 view .LVU17
	.loc 1 160 13 is_stmt 0 view .LVU18
	cmpw	$-8826, %ax
	jne	.L7
	.loc 1 161 5 is_stmt 1 view .LVU19
.LVL4:
	.loc 1 162 5 view .LVU20
	.loc 1 162 17 is_stmt 0 view .LVU21
	// R3
	leaq	20(%rdi), %rbx
	cmp		%r13, %rbx
	jg		.+7
	jmp		trap
	cmp		%r14, %rbx
	jl		.+7
	jmp		trap
	movzbl	20(%rdi), %eax
	.loc 1 162 5 view .LVU22
	cmpb	$17, %al
	je	.L8
	ja	.L9
	cmpb	$1, %al
	je	.L10
	cmpb	$6, %al
	jne	.L126
	.loc 1 164 9 is_stmt 1 view .LVU23
	.loc 1 144 20 is_stmt 0 view .LVU24
	leaq	16(%rsp), %rbx
	cmp		%r15, %rbx
	jg		.+7
	jmp		trap
	movq	$0, 16(%rsp)
	.loc 1 164 14 view .LVU25
	leaq	54(%rdi), %r9
.LVL5:
	.loc 1 165 9 is_stmt 1 view .LVU26
	.loc 1 142 18 is_stmt 0 view .LVU27
	xorl	%r8d, %r8d
	.loc 1 139 17 view .LVU28
	xorl	%r10d, %r10d
	.loc 1 143 19 view .LVU29
	leaq	8(%rsp), %rbx
	cmp		%r15, %rbx
	jg		.+7
	jmp		trap
	movq	$0, 8(%rsp)
.LVL6:
	.p2align 4,,10
	.p2align 3
.L6:
	.loc 1 194 3 is_stmt 1 view .LVU30
	.loc 1 194 15 view .LVU31
	.loc 1 194 17 is_stmt 0 view .LVU32
	leaq	filter_num(%rip), %rbx
	cmp		%r15, %rbx
	jg		.+7
	jmp		trap
	movl	filter_num(%rip), %edi
.LVL7:
	.loc 1 194 3 view .LVU33
	testl	%edi, %edi
	jle	.L7
	leaq	filters(%rip), %r11
	.loc 1 194 10 view .LVU34
	xorl	%ebp, %ebp
	movq	%r8, %rsi
.LVL8:
	.p2align 4,,10
	.p2align 3
.L42:
.LBB38:
	.loc 1 195 5 is_stmt 1 view .LVU35
	.loc 1 195 19 is_stmt 0 view .LVU36
	leaq	(%r11), %rbx
	cmp		%r15, %rbx
	jg		.+7
	jmp		trap
	movdqa	(%r11), %xmm0
	leaq	16(%r11), %rbx
	cmp		%r15, %rbx
	jg		.+7
	jmp		trap
	movdqa	16(%r11), %xmm1
	leaq	32(%r11), %rbx
	cmp		%r15, %rbx
	jg		.+7
	jmp		trap
	movdqa	32(%r11), %xmm2
	leaq	32(%rsp), %rbx
	cmp		%r15, %rbx
	jg		.+7
	jmp		trap
	movaps	%xmm0, 32(%rsp)
	leaq	48(%rsp), %rbx
	cmp		%r15, %rbx
	jg		.+7
	jmp		trap
	movaps	%xmm1, 48(%rsp)
	leaq	64(%rsp), %rbx
	cmp		%r15, %rbx
	jg		.+7
	jmp		trap
	movaps	%xmm2, 64(%rsp)
.LVL9:
	.loc 1 196 5 is_stmt 1 view .LVU37
	.loc 1 196 8 is_stmt 0 view .LVU38
	testq	%r10, %r10
	je	.L13
	.loc 1 195 19 view .LVU39
	leaq	(%r11), %rbx
	cmp		%r15, %rbx
	jg		.+7
	jmp		trap
	movl	(%r11), %eax
	.loc 1 197 7 is_stmt 1 view .LVU40
	.loc 1 197 10 is_stmt 0 view .LVU41
	testl	%eax, %eax
	je	.L14
	.loc 1 197 27 discriminator 1 view .LVU42
	cmpl	%eax, 12(%r10)
	jne	.L15
.L14:
	.loc 1 195 19 view .LVU43
	// omit
	// leaq	4(%r11), %rbx
	// cmp		%r15, %rbx
	// jg		.+7
	// jmp		trap
	movl	4(%r11), %eax
	.loc 1 199 7 is_stmt 1 view .LVU44
	.loc 1 199 10 is_stmt 0 view .LVU45
	testl	%eax, %eax
	je	.L16
	.loc 1 199 27 discriminator 1 view .LVU46
	cmpl	%eax, 16(%r10)
	jne	.L15
.L16:
	.loc 1 202 7 is_stmt 1 view .LVU47
	.loc 1 202 10 is_stmt 0 view .LVU48
	testb	$1, 40(%rsp)
	je	.L17
	.loc 1 202 28 discriminator 1 view .LVU49
	// omit
	// leaq	9(%r11), %rbx
	// cmp		%r15, %rbx
	// jg		.+7
	// jmp		trap
	movzbl	9(%r11), %eax
	cmpb	%al, 1(%r10)
	jne	.L15
.L17:
	.loc 1 204 7 is_stmt 1 view .LVU50
	.loc 1 204 10 is_stmt 0 view .LVU51
	testb	$1, 42(%rsp)
	je	.L18
	.loc 1 204 32 discriminator 1 view .LVU52
	// omit
	// leaq	11(%r11), %rbx
	// cmp		%r15, %rbx
	// jg		.+7
	// jmp		trap
	movzbl	11(%r11), %eax
	cmpb	%al, 8(%r10)
	jb	.L15
.L18:
	.loc 1 206 7 is_stmt 1 view .LVU53
	.loc 1 206 10 is_stmt 0 view .LVU54
	testb	$1, 44(%rsp)
	je	.L19
	.loc 1 206 32 discriminator 1 view .LVU55
	// R3 omit
	// leaq	8(%r10), %rbx
	// cmp		%r13, %rbx
	// jg		.+7
	// jmp		trap
	// cmp		%r14, %rbx
	// jl		.+7
	// jmp		trap
	movzbl	8(%r10), %eax
	cmpb	%al, 13(%r11)
	jb	.L15
.L19:
	.loc 1 208 7 is_stmt 1 view .LVU56
	.loc 1 208 10 is_stmt 0 view .LVU57
	testb	$1, 46(%rsp)
	je	.L20
.LVL10:
.LBB39:
.LBI39:
	.loc 1 31 10 is_stmt 1 discriminator 1 view .LVU58
.LBB40:
	.loc 1 32 5 discriminator 1 view .LVU59
	.loc 1 32 37 is_stmt 0 discriminator 1 view .LVU60
	// R3 omit
	// leaq	2(%r10), %rbx
	// cmp		%r13, %rbx
	// jg		.+7
	// jmp		trap
	// leaq	3(%r10), %rbx
	// cmp		%r14, %rbx
	// jl		.+7
	// jmp		trap
	movzwl	2(%r10), %eax
	rolw	$8, %ax
.LBE40:
.LBE39:
	.loc 1 208 32 discriminator 1 view .LVU61
	cmpw	%ax, 16(%r11)
	ja	.L15
.L20:
	.loc 1 210 7 is_stmt 1 view .LVU62
	.loc 1 210 10 is_stmt 0 view .LVU63
	testb	$1, 50(%rsp)
	je	.L13
.LVL11:
.LBB41:
.LBI41:
	.loc 1 31 10 is_stmt 1 discriminator 1 view .LVU64
.LBB42:
	.loc 1 32 5 discriminator 1 view .LVU65
	.loc 1 32 37 is_stmt 0 discriminator 1 view .LVU66
	// R3 omit
	// leaq	2(%r10), %rbx
	// cmp		%r13, %rbx
	// jg		.+7
	// jmp		trap
	// leaq	3(%r10), %rbx
	// cmp		%r14, %rbx
	// jl		.+7
	// jmp		trap
	movzwl	2(%r10), %eax
	rolw	$8, %ax
.LBE42:
.LBE41:
	.loc 1 210 32 discriminator 1 view .LVU67
	cmpw	%ax, 20(%r11)
	jb	.L15
	.p2align 4,,10
	.p2align 3
.L13:
	.loc 1 213 7 is_stmt 1 view .LVU68
	.loc 1 215 5 view .LVU69
	.loc 1 215 9 is_stmt 0 view .LVU70
	// omit
	// leaq	56(%rsp), %rbx
	// cmp		%r15, %rbx
	// jg		.+7
	// jmp		trap
	movzbl	56(%rsp), %eax
	.loc 1 215 8 view .LVU71
	testb	$1, %al
	je	.L21
	.loc 1 216 7 is_stmt 1 view .LVU72
	.loc 1 216 10 is_stmt 0 view .LVU73
	testq	%r9, %r9
	je	.L15
	.loc 1 218 7 is_stmt 1 view .LVU74
	.loc 1 218 10 is_stmt 0 view .LVU75
	testb	$2, %al
	je	.L22
.LVL12:
.LBB43:
.LBI43:
	.loc 1 27 10 is_stmt 1 discriminator 1 view .LVU76
.LBB44:
	.loc 1 28 5 discriminator 1 view .LVU77
	.loc 1 28 38 is_stmt 0 discriminator 1 view .LVU78
	// omit
	// leaq	26(%r11), %rbx
	// cmp		%r15, %rbx
	// jg		.+7
	// jmp		trap
	movzwl	26(%r11), %eax
	rolw	$8, %ax
.LBE44:
.LBE43:
	.loc 1 218 38 discriminator 1 view .LVU79
	cmpw	%ax, (%r9)
	jne	.L15
.L22:
	.loc 1 220 7 is_stmt 1 view .LVU80
	.loc 1 220 10 is_stmt 0 view .LVU81
	testb	$1, 60(%rsp)
	je	.L23
.LVL13:
.LBB45:
.LBI45:
	.loc 1 27 10 is_stmt 1 discriminator 1 view .LVU82
.LBB46:
	.loc 1 28 5 discriminator 1 view .LVU83
	.loc 1 28 38 is_stmt 0 discriminator 1 view .LVU84
	leaq	30(%r11), %rbx
	cmp		%r15, %rbx
	jg		.+7
	jmp		trap
	movzwl	30(%r11), %eax
	rolw	$8, %ax
.LBE46:
.LBE45:
	.loc 1 220 38 discriminator 1 view .LVU85
	cmpw	%ax, 2(%r9)
	jne	.L15
.L23:
	.loc 1 195 19 view .LVU86
	// omit
	// leaq	32(%r11), %rbx
	// cmp		%r15, %rbx
	// jg		.+7
	// jmp		trap
	movzbl	32(%r11), %eax
	movl	%eax, %edx
	movl	%eax, %ecx
	shrb	$3, %dl
	shrb	%cl
	andl	$1, %edx
	andl	$1, %ecx
	leaq	25(%rsp), %rbx
	cmp		%r15, %rbx
	jg		.+7
	jmp		trap
	movb	%dl, 25(%rsp)
	movl	%eax, %edx
	shrb	$5, %dl
	andl	$1, %edx
	leaq	26(%rsp), %rbx
	cmp		%r15, %rbx
	jg		.+7
	jmp		trap
	movb	%dl, 26(%rsp)
	movl	%eax, %edx
	.loc 1 222 11 view .LVU87
	andl	$-86, %eax
	.loc 1 195 19 view .LVU88
	shrb	$7, %dl
	leaq	27(%rsp), %rbx
	cmp		%r15, %rbx
	jg		.+7
	jmp		trap
	movb	%dl, 27(%rsp)
	leaq	33(%r11), %rbx
	cmp		%r15, %rbx
	jg		.+7
	jmp		trap
	movzbl	33(%r11), %edx
	movl	%edx, %r8d
	shrb	%r8b
	andl	$1, %r8d
	leaq	28(%rsp), %rbx
	cmp		%r15, %rbx
	jg		.+7
	jmp		trap
	movb	%r8b, 28(%rsp)
	movl	%edx, %r8d
	shrb	$3, %r8b
	andl	$1, %r8d
	leaq	30(%rsp), %rbx
	cmp		%r15, %rbx
	jg		.+7
	jmp		trap
	movb	%r8b, 30(%rsp)
	movl	%edx, %r8d
	shrb	$5, %r8b
	andl	$1, %r8d
	leaq	31(%rsp), %rbx
	cmp		%r15, %rbx
	jg		.+7
	jmp		trap
	movb	%r8b, 31(%rsp)
	movl	%edx, %r8d
	shrb	$7, %r8b
	leaq	29(%rsp), %rbx
	cmp		%r15, %rbx
	jg		.+7
	jmp		trap
	movb	%r8b, 29(%rsp)
	.loc 1 222 7 is_stmt 1 view .LVU89
	.loc 1 222 11 is_stmt 0 view .LVU90
	// omit
	// leaq	64(%rsp), %rbx
	// cmp		%r15, %rbx
	// jg		.+7
	// jmp		trap
	movzbl	64(%rsp), %r8d
	andl	$85, %r8d
	orl	%r8d, %eax
	leaq	64(%rsp), %rbx
	cmp		%r15, %rbx
	jg		.+7
	jmp		trap
	movb	%al, 64(%rsp)
	.loc 1 222 10 view .LVU91
	testb	$1, %al
	je	.L24
	.loc 1 222 65 discriminator 1 view .LVU92
	// R3 omit
	// leaq	13(%r9), %rbx
	// cmp		%r13, %rbx
	// jg		.+7
	// jmp		trap
	// cmp		%r14, %rbx
	// jl		.+7
	// jmp		trap
	movzbl	13(%r9), %r8d
	shrb	$5, %r8b
	andl	$1, %r8d
	.loc 1 222 36 discriminator 1 view .LVU93
	cmpb	%cl, %r8b
	jne	.L15
.L24:
	.loc 1 224 7 is_stmt 1 view .LVU94
	.loc 1 224 10 is_stmt 0 view .LVU95
	testb	$4, %al
	je	.L25
	.loc 1 224 65 discriminator 1 view .LVU96
	// R3 omit
	// leaq	13(%r9), %rbx
	// cmp		%r13, %rbx
	// jg		.+7
	// jmp		trap
	// cmp		%r14, %rbx
	// jl		.+7
	// jmp		trap
	movzbl	13(%r9), %ecx
	shrb	$4, %cl
	andl	$1, %ecx
	.loc 1 224 36 discriminator 1 view .LVU97
	cmpb	25(%rsp), %cl
	jne	.L15
.L25:
	.loc 1 226 7 is_stmt 1 view .LVU98
	.loc 1 226 10 is_stmt 0 view .LVU99
	testb	$16, %al
	je	.L26
	.loc 1 226 65 discriminator 1 view .LVU100
	// R3 omit
	// leaq	13(%r9), %rbx
	// cmp		%r13, %rbx
	// jg		.+7
	// jmp		trap
	// cmp		%r14, %rbx
	// jl		.+7
	// jmp		trap
	movzbl	13(%r9), %ecx
	shrb	$2, %cl
	andl	$1, %ecx
	.loc 1 226 36 discriminator 1 view .LVU101
	cmpb	26(%rsp), %cl
	jne	.L15
.L26:
	.loc 1 228 7 is_stmt 1 view .LVU102
	.loc 1 228 10 is_stmt 0 view .LVU103
	testb	$64, %al
	je	.L27
	.loc 1 228 65 discriminator 1 view .LVU104
	// R3 omit
	// leaq	13(%r9), %rbx
	// cmp		%r13, %rbx
	// jg		.+7
	// jmp		trap
	// cmp		%r14, %rbx
	// jl		.+7
	// jmp		trap
	movzbl	13(%r9), %eax
	shrb	$3, %al
	andl	$1, %eax
	.loc 1 228 36 discriminator 1 view .LVU105
	cmpb	27(%rsp), %al
	jne	.L15
.L27:
	.loc 1 230 7 is_stmt 1 view .LVU106
	.loc 1 230 11 is_stmt 0 view .LVU107
	// omit
	// leaq	65(%rsp), %rbx
	// cmp		%r15, %rbx
	// jg		.+7
	// jmp		trap
	movzbl	65(%rsp), %eax
	andl	$-86, %edx
	andl	$85, %eax
	orl	%eax, %edx
	leaq	65(%rsp), %rbx
	cmp		%r15, %rbx
	jg		.+7
	jmp		trap
	movb	%dl, 65(%rsp)
	.loc 1 230 10 view .LVU108
	testb	$1, %dl
	jne	.L129
.L28:
	.loc 1 232 7 is_stmt 1 view .LVU109
	.loc 1 232 10 is_stmt 0 view .LVU110
	testb	$4, %dl
	je	.L29
	.loc 1 232 65 discriminator 1 view .LVU111
	// R3 omit
	// leaq	13(%r9), %rbx
	// cmp		%r13, %rbx
	// jg		.+7
	// jmp		trap
	// cmp		%r14, %rbx
	// jl		.+7
	// jmp		trap
	movzbl	13(%r9), %eax
	andl	$1, %eax
	.loc 1 232 36 discriminator 1 view .LVU112
	cmpb	30(%rsp), %al
	jne	.L15
.L29:
	.loc 1 234 7 is_stmt 1 view .LVU113
	.loc 1 234 10 is_stmt 0 view .LVU114
	testb	$16, %dl
	je	.L30
	.loc 1 234 65 discriminator 1 view .LVU115
	// R3 omit
	// leaq	13(%r9), %rbx
	// cmp		%r13, %rbx
	// jg		.+7
	// jmp		trap
	// cmp		%r14, %rbx
	// jl		.+7
	// jmp		trap
	movzbl	13(%r9), %eax
	shrb	$6, %al
	andl	$1, %eax
	.loc 1 234 36 discriminator 1 view .LVU116
	cmpb	31(%rsp), %al
	jne	.L15
.L30:
	.loc 1 236 7 is_stmt 1 view .LVU117
	.loc 1 236 10 is_stmt 0 view .LVU118
	andl	$64, %edx
	je	.L32
	.loc 1 236 65 discriminator 1 view .LVU119
	// R3 omit
	// leaq	13(%r9), %rbx
	// cmp		%r13, %rbx
	// jg		.+7
	// jmp		trap
	// cmp		%r14, %rbx
	// jl		.+7
	// jmp		trap
	movzbl	13(%r9), %eax
	shrb	$7, %al
	.loc 1 236 36 discriminator 1 view .LVU120
	cmpb	29(%rsp), %al
	je	.L32
	.p2align 4,,10
	.p2align 3
.L15:
.LVL14:
	.loc 1 236 36 discriminator 1 view .LVU121
.LBE38:
	.loc 1 194 31 is_stmt 1 view .LVU122
	.loc 1 194 32 is_stmt 0 view .LVU123
	addl	$1, %ebp
.LVL15:
	.loc 1 194 15 is_stmt 1 view .LVU124
	addq	$48, %r11
	.loc 1 194 3 is_stmt 0 view .LVU125
	cmpl	%edi, %ebp
	jne	.L42
.LVL16:
.L7:
	.loc 1 285 1 view .LVU126
	addq	$80, %rsp
	.cfi_remember_state
	.cfi_def_cfa_offset 16
	.loc 1 177 12 view .LVU127
	xorl	%eax, %eax
	.loc 1 285 1 view .LVU128
	popq	%rbp
	.cfi_def_cfa_offset 8
	ret
.LVL17:
	.p2align 4,,10
	.p2align 3
.L21:
	.cfi_restore_state
.LBB53:
	.loc 1 238 12 is_stmt 1 view .LVU129
	.loc 1 238 16 is_stmt 0 view .LVU130
	leaq	68(%rsp), %rbx
	cmp		%r15, %rbx
	jg		.+7
	jmp		trap
	movzbl	68(%rsp), %eax
	.loc 1 238 15 view .LVU131
	testb	$1, %al
	je	.L34
	.loc 1 239 7 is_stmt 1 view .LVU132
	.loc 1 239 10 is_stmt 0 view .LVU133
	testq	%rsi, %rsi
	je	.L15
	.loc 1 247 7 is_stmt 1 view .LVU134
	.loc 1 247 10 is_stmt 0 view .LVU135
	testb	$2, %al
	je	.L35
.LVL18:
.LBB47:
.LBI47:
	.loc 1 27 10 is_stmt 1 discriminator 1 view .LVU136
.LBB48:
	.loc 1 28 5 discriminator 1 view .LVU137
	.loc 1 28 38 is_stmt 0 discriminator 1 view .LVU138
	// omit
	// leaq	38(%r11), %rbx
	// cmp		%r15, %rbx
	// jg		.+7
	// jmp		trap
	movzwl	38(%r11), %eax
	rolw	$8, %ax
.LBE48:
.LBE47:
	.loc 1 247 38 discriminator 1 view .LVU139
	cmpw	%ax, (%rsi)
	jne	.L15
.L35:
	.loc 1 249 7 is_stmt 1 view .LVU140
	.loc 1 249 10 is_stmt 0 view .LVU141
	testb	$1, 72(%rsp)
	je	.L36
.LVL19:
.LBB49:
.LBI49:
	.loc 1 27 10 is_stmt 1 discriminator 1 view .LVU142
.LBB50:
	.loc 1 28 5 discriminator 1 view .LVU143
	.loc 1 28 38 is_stmt 0 discriminator 1 view .LVU144
	leaq	42(%r11), %rbx
	cmp		%r15, %rbx
	jg		.+7
	jmp		trap
	movzwl	42(%r11), %eax
	rolw	$8, %ax
.LBE50:
.LBE49:
	.loc 1 249 38 discriminator 1 view .LVU145
	cmpw	%ax, 2(%rsi)
	jne	.L15
.L36:
	.loc 1 251 7 is_stmt 1 view .LVU146
#APP
# 251 "u_firewall.c" 1
	# BEGIN_INTERESTING_SECTION
# 0 "" 2
	.loc 1 252 7 view .LVU147
	.loc 1 252 10 is_stmt 0 view .LVU148
#NO_APP
	cmpl	$9, tmp1(%rip)
	jle	.L130
.LVL20:
.L37:
	.loc 1 256 7 is_stmt 1 view .LVU149
#APP
# 256 "u_firewall.c" 1
	# END_INTERESTING_SECTION
# 0 "" 2
#NO_APP
.L32:
	.loc 1 278 5 view .LVU150
	.loc 1 278 5 is_stmt 0 view .LVU151
.LBE53:
	.loc 1 285 1 view .LVU152
	addq	$80, %rsp
	.cfi_remember_state
	.cfi_def_cfa_offset 16
.LBB54:
	.loc 1 278 12 view .LVU153
	movl	$1, %eax
.LBE54:
	.loc 1 285 1 view .LVU154
	popq	%rbp
	.cfi_def_cfa_offset 8
.LVL21:
	.loc 1 285 1 view .LVU155
	ret
.LVL22:
	.p2align 4,,10
	.p2align 3
.L34:
	.cfi_restore_state
.LBB55:
	.loc 1 257 12 is_stmt 1 view .LVU156
	.loc 1 257 16 is_stmt 0 view .LVU157
	// omit
	// leaq	76(%rsp), %rbx
	// cmp		%r15, %rbx
	// jg		.+7
	// jmp		trap
	movzbl	76(%rsp), %eax
	.loc 1 257 15 view .LVU158
	testb	$1, %al
	je	.L15
	.loc 1 258 10 view .LVU159
	leaq	8(%rsp), %rbx
	cmp		%r15, %rbx
	jg		.+7
	jmp		trap
	movq	8(%rsp), %r8
	.loc 1 195 19 view .LVU160
	leaq	45(%r11), %rbx
	cmp		%r15, %rbx
	jg		.+7
	jmp		trap
	movzbl	45(%r11), %ecx
	leaq	47(%r11), %rbx
	cmp		%r15, %rbx
	jg		.+7
	jmp		trap
	movzbl	47(%r11), %edx
	.loc 1 258 7 is_stmt 1 view .LVU161
	.loc 1 258 10 is_stmt 0 view .LVU162
	testq	%r8, %r8
	je	.L38
	.loc 1 259 9 is_stmt 1 view .LVU163
	.loc 1 259 12 is_stmt 0 view .LVU164
	testb	$2, %al
	jne	.L131
.L39:
	.loc 1 261 9 is_stmt 1 view .LVU165
	.loc 1 261 12 is_stmt 0 view .LVU166
	testb	$1, 78(%rsp)
	je	.L32
	.loc 1 261 40 discriminator 1 view .LVU167
	// omit
	// leaq	8(%rsp), %rbx
	// cmp		%r15, %rbx
	// jg		.+7
	// jmp		trap
	movq	8(%rsp), %rax
	cmpb	%dl, (%rax)
	je	.L32
.LVL23:
	.loc 1 261 40 discriminator 1 view .LVU168
.LBE55:
	.loc 1 194 31 is_stmt 1 view .LVU169
	.loc 1 194 32 is_stmt 0 view .LVU170
	addl	$1, %ebp
.LVL24:
	.loc 1 194 15 is_stmt 1 view .LVU171
	addq	$48, %r11
	.loc 1 194 3 is_stmt 0 view .LVU172
	cmpl	%edi, %ebp
	jne	.L42
	jmp	.L7
.LVL25:
	.p2align 4,,10
	.p2align 3
.L128:
	.loc 1 148 5 is_stmt 1 view .LVU173
	.loc 1 149 16 is_stmt 0 view .LVU174
	// R3
	leaq	23(%rdi), %rbx
	cmp		%r13, %rbx
	jg		.+7
	jmp		trap
	cmp		%r14, %rbx
	jl		.+7
	jmp		trap
	movzbl	23(%rdi), %eax
	.loc 1 148 9 view .LVU175
	leaq	14(%rdi), %r10
.LVL26:
	.loc 1 149 5 is_stmt 1 view .LVU176
	cmpb	$6, %al
	je	.L3
	cmpb	$17, %al
	je	.L4
	cmpb	$1, %al
	je	.L5
	leaq	16(%rsp), %rbx
	cmp		%r15, %rbx
	jg		.+7
	jmp		trap
	movq	$0, 16(%rsp)
	xorl	%r8d, %r8d
	xorl	%r9d, %r9d
	leaq	8(%rsp), %rbx
	cmp		%r15, %rbx
	jg		.+7
	jmp		trap
	movq	$0, 8(%rsp)
	jmp	.L6
.LVL27:
	.p2align 4,,10
	.p2align 3
.L9:
	.loc 1 162 5 is_stmt 0 view .LVU177
	cmpb	$58, %al
	jne	.L126
	.loc 1 173 9 is_stmt 1 view .LVU178
	.loc 1 173 16 is_stmt 0 view .LVU179
	leaq	54(%rdi), %rax
	.loc 1 142 18 view .LVU180
	xorl	%r8d, %r8d
	.loc 1 141 18 view .LVU181
	xorl	%r9d, %r9d
	.loc 1 139 17 view .LVU182
	xorl	%r10d, %r10d
	.loc 1 173 16 view .LVU183
	leaq	16(%rsp), %rbx
	cmp		%r15, %rbx
	jg		.+7
	jmp		trap
	movq	%rax, 16(%rsp)
.LVL28:
	.loc 1 174 9 is_stmt 1 view .LVU184
	.loc 1 143 19 is_stmt 0 view .LVU185
	leaq	8(%rsp), %rbx
	cmp		%r15, %rbx
	jg		.+7
	jmp		trap
	movq	$0, 8(%rsp)
	.loc 1 174 9 view .LVU186
	jmp	.L6
.LVL29:
	.p2align 4,,10
	.p2align 3
.L131:
.LBB56:
	.loc 1 259 40 discriminator 1 view .LVU187
	cmpb	1(%r8), %cl
	je	.L39
	jmp	.L15
.LVL30:
	.p2align 4,,10
	.p2align 3
.L10:
	.loc 1 259 40 discriminator 1 view .LVU188
.LBE56:
	.loc 1 170 9 is_stmt 1 view .LVU189
	.loc 1 170 15 is_stmt 0 view .LVU190
	leaq	54(%rdi), %rax
	.loc 1 142 18 view .LVU191
	xorl	%r8d, %r8d
	.loc 1 141 18 view .LVU192
	xorl	%r9d, %r9d
	.loc 1 139 17 view .LVU193
	xorl	%r10d, %r10d
	.loc 1 170 15 view .LVU194
	leaq	8(%rsp), %rbx
	cmp		%r15, %rbx
	jg		.+7
	jmp		trap
	movq	%rax, 8(%rsp)
.LVL31:
	.loc 1 171 9 is_stmt 1 view .LVU195
	.loc 1 144 20 is_stmt 0 view .LVU196
	leaq	16(%rsp), %rbx
	cmp		%r15, %rbx
	jg		.+7
	jmp		trap
	movq	$0, 16(%rsp)
	.loc 1 171 9 view .LVU197
	jmp	.L6
.LVL32:
	.p2align 4,,10
	.p2align 3
.L129:
.LBB57:
	.loc 1 230 65 discriminator 1 view .LVU198
	// R3
	leaq	13(%r9), %rbx
	cmp		%r13, %rbx
	jg		.+7
	jmp		trap
	cmp		%r14, %rbx
	jl		.+7
	jmp		trap
	movzbl	13(%r9), %eax
	shrb	%al
	andl	$1, %eax
	.loc 1 230 36 discriminator 1 view .LVU199
	cmpb	28(%rsp), %al
	je	.L28
	jmp	.L15
	.p2align 4,,10
	.p2align 3
.L130:
	.loc 1 253 9 is_stmt 1 view .LVU200
.LVL33:
.LBB51:
.LBI51:
	.file 2 "/usr/include/x86_64-linux-gnu/bits/stdio2.h"
	.loc 2 105 1 view .LVU201
.LBB52:
	.loc 2 107 3 view .LVU202
	.loc 2 107 10 is_stmt 0 view .LVU203
	movl	%ebp, %edx
	leaq	.LC0(%rip), %rsi
.LVL34:
	.loc 2 107 10 view .LVU204
	movl	$1, %edi
	xorl	%eax, %eax
	call	__printf_chk@PLT
.LVL35:
	.loc 2 107 10 view .LVU205
.LBE52:
.LBE51:
	.loc 1 254 9 is_stmt 1 view .LVU206
	.loc 1 254 13 is_stmt 0 view .LVU207
	leaq	tmp1(%rip), %rbx
	cmp		%r15, %rbx
	jg		.+7
	jmp		trap
	addl	$1, tmp1(%rip)
	jmp	.L37
.LVL36:
	.p2align 4,,10
	.p2align 3
.L38:
	.loc 1 263 14 is_stmt 1 view .LVU208
	.loc 1 263 17 is_stmt 0 view .LVU209
	leaq	16(%rsp), %rbx
	cmp		%r15, %rbx
	jg		.+7
	jmp		trap
	movq	16(%rsp), %r8
	testq	%r8, %r8
	je	.L15
	.loc 1 264 9 is_stmt 1 view .LVU210
	.loc 1 264 12 is_stmt 0 view .LVU211
	testb	$2, %al
	je	.L40
	.loc 1 264 40 discriminator 1 view .LVU212
	cmpb	1(%r8), %cl
	jne	.L15
.L40:
	.loc 1 266 9 is_stmt 1 view .LVU213
	.loc 1 266 12 is_stmt 0 view .LVU214
	testb	$1, 78(%rsp)
	je	.L32
	.loc 1 266 40 discriminator 1 view .LVU215
	leaq	16(%rsp), %rbx
	cmp		%r15, %rbx
	jg		.+7
	jmp		trap
	movq	16(%rsp), %rax
	cmpb	%dl, (%rax)
	je	.L32
	jmp	.L15
.LVL37:
	.p2align 4,,10
	.p2align 3
.L126:
	.loc 1 266 40 discriminator 1 view .LVU216
.LBE57:
	.loc 1 162 5 view .LVU217
	leaq	16(%rsp), %rbx
	cmp		%r15, %rbx
	jg		.+7
	jmp		trap
	movq	$0, 16(%rsp)
	xorl	%r8d, %r8d
	xorl	%r9d, %r9d
	xorl	%r10d, %r10d
	leaq	8(%rsp), %rbx
	cmp		%r15, %rbx
	jg		.+7
	jmp		trap
	movq	$0, 8(%rsp)
	jmp	.L6
.LVL38:
	.p2align 4,,10
	.p2align 3
.L5:
	.loc 1 157 9 is_stmt 1 view .LVU218
	.loc 1 157 15 is_stmt 0 view .LVU219
	leaq	34(%rdi), %rax
	.loc 1 142 18 view .LVU220
	xorl	%r8d, %r8d
	.loc 1 141 18 view .LVU221
	xorl	%r9d, %r9d
	.loc 1 144 20 view .LVU222
	leaq	16(%rsp), %rbx
	cmp		%r15, %rbx
	jg		.+7
	jmp		trap
	movq	$0, 16(%rsp)
	.loc 1 157 15 view .LVU223
	leaq	8(%rsp), %rbx
	cmp		%r15, %rbx
	jg		.+7
	jmp		trap
	movq	%rax, 8(%rsp)
.LVL39:
	.loc 1 158 9 is_stmt 1 view .LVU224
	jmp	.L6
.LVL40:
	.p2align 4,,10
	.p2align 3
.L4:
	.loc 1 154 9 view .LVU225
	.loc 1 144 20 is_stmt 0 view .LVU226
	leaq	16(%rsp), %rbx
	cmp		%r15, %rbx
	jg		.+7
	jmp		trap
	movq	$0, 16(%rsp)
	.loc 1 154 14 view .LVU227
	leaq	34(%rdi), %r8
.LVL41:
	.loc 1 155 9 is_stmt 1 view .LVU228
	.loc 1 141 18 is_stmt 0 view .LVU229
	xorl	%r9d, %r9d
	.loc 1 143 19 view .LVU230
	leaq	8(%rsp), %rbx
	cmp		%r15, %rbx
	jg		.+7
	jmp		trap
	movq	$0, 8(%rsp)
	.loc 1 155 9 view .LVU231
	jmp	.L6
.LVL42:
	.p2align 4,,10
	.p2align 3
.L3:
	.loc 1 151 9 is_stmt 1 view .LVU232
	.loc 1 144 20 is_stmt 0 view .LVU233
	leaq	16(%rsp), %rbx
	cmp		%r15, %rbx
	jg		.+4
	jmp		trap
	movq	$0, 16(%rsp)
	.loc 1 151 14 view .LVU234
	leaq	34(%rdi), %r9
.LVL43:
	.loc 1 152 9 is_stmt 1 view .LVU235
	.loc 1 142 18 is_stmt 0 view .LVU236
	xorl	%r8d, %r8d
	.loc 1 143 19 view .LVU237
	leaq	8(%rsp), %rbx
	cmp		%r15, %rbx
	jg		.+4
	jmp		trap
	movq	$0, 8(%rsp)
	.loc 1 152 9 view .LVU238
	jmp	.L6
.LVL44:
.L8:
	.loc 1 167 9 is_stmt 1 view .LVU239
	.loc 1 144 20 is_stmt 0 view .LVU240
	leaq	16(%rsp), %rbx
	cmp		%r15, %rbx
	jg		.+4
	jmp		trap
	movq	$0, 16(%rsp)
	.loc 1 167 14 view .LVU241
	leaq	54(%rdi), %r8
.LVL45:
	.loc 1 168 9 is_stmt 1 view .LVU242
	.loc 1 141 18 is_stmt 0 view .LVU243
	xorl	%r9d, %r9d
	.loc 1 139 17 view .LVU244
	xorl	%r10d, %r10d
	.loc 1 143 19 view .LVU245
	leaq	8(%rsp), %rbx
	cmp		%r15, %rbx
	jg		.+4
	jmp		trap
	movq	$0, 8(%rsp)
	.loc 1 168 9 view .LVU246
	jmp	.L6
	.cfi_endproc
.LFE88:
	.size	nfc_cb, .-nfc_cb
	.section	.rodata.str1.1
.LC1:
	.string	"trap!"
	.text
	.p2align 4
	.globl	trap
	.type	trap, @function
trap:
.LFB83:
	.loc 1 22 13 is_stmt 1 view -0
	.cfi_startproc
	endbr64
	pushq	%rax
	.cfi_def_cfa_offset 16
	popq	%rax
	.cfi_def_cfa_offset 8
	.loc 1 23 3 view .LVU248
.LVL46:
.LBB58:
.LBI58:
	.loc 2 105 1 view .LVU249
.LBB59:
	.loc 2 107 3 view .LVU250
	.loc 2 107 10 is_stmt 0 view .LVU251
	leaq	.LC1(%rip), %rdi
.LBE59:
.LBE58:
	.loc 1 22 13 view .LVU252
	subq	$8, %rsp
	.cfi_def_cfa_offset 16
.LBB61:
.LBB60:
	.loc 2 107 10 view .LVU253
	call	puts@PLT
.LVL47:
	.loc 2 107 10 view .LVU254
.LBE60:
.LBE61:
	.loc 1 24 3 is_stmt 1 view .LVU255
	movl	$1, %edi
	call	exit@PLT
.LVL48:
	.cfi_endproc
.LFE83:
	.size	trap, .-trap
	.p2align 4
	.globl	my_htons
	.type	my_htons, @function
my_htons:
.LVL49:
.LFB84:
	.loc 1 27 39 view -0
	.cfi_startproc
	.loc 1 27 39 is_stmt 0 view .LVU257
	endbr64
	.loc 1 28 5 is_stmt 1 view .LVU258
	.loc 1 28 38 is_stmt 0 view .LVU259
	movl	%edi, %eax
	rolw	$8, %ax
	.loc 1 29 1 view .LVU260
	ret
	.cfi_endproc
.LFE84:
	.size	my_htons, .-my_htons
	.p2align 4
	.globl	my_ntohs
	.type	my_ntohs, @function
my_ntohs:
.LFB90:
	.cfi_startproc
	endbr64
	movl	%edi, %eax
	rolw	$8, %ax
	ret
	.cfi_endproc
.LFE90:
	.size	my_ntohs, .-my_ntohs
	.section	.rodata.str1.1
.LC2:
	.string	"10.10.1.201"
.LC3:
	.string	"inet_pton"
.LC4:
	.string	"10.10.0.109"
	.text
	.p2align 4
	.globl	setup_rules
	.type	setup_rules, @function
setup_rules:
.LFB86:
	.loc 1 37 19 is_stmt 1 view -0
	.cfi_startproc
	endbr64
	.loc 1 37 19 is_stmt 0 view .LVU262
	pushq	%rbp
	.cfi_def_cfa_offset 16
	.cfi_offset 6, -16
	.loc 1 40 7 view .LVU263
	leaq	.LC2(%rip), %rsi
	movl	$2, %edi
	.loc 1 37 19 view .LVU264
	subq	$32, %rsp
	.cfi_def_cfa_offset 48
	.loc 1 37 19 view .LVU265
	movq	%fs:40, %rax
	movq	%rax, 24(%rsp)
	xorl	%eax, %eax
	.loc 1 38 3 is_stmt 1 view .LVU266
	.loc 1 40 3 view .LVU267
	.loc 1 40 7 is_stmt 0 view .LVU268
	leaq	16(%rsp), %rbp
	movq	%rbp, %rdx
	call	inet_pton@PLT
.LVL50:
	.loc 1 40 6 view .LVU269
	testl	%eax, %eax
	jle	.L138
	.loc 1 44 3 is_stmt 1 view .LVU270
	.loc 1 44 7 is_stmt 0 view .LVU271
	leaq	20(%rsp), %r8
	leaq	.LC4(%rip), %rsi
	movl	$2, %edi
	movq	%r8, %rdx
	movq	%r8, 8(%rsp)
	call	inet_pton@PLT
.LVL51:
	.loc 1 44 6 view .LVU272
	testl	%eax, %eax
	jle	.L138
	.loc 1 52 26 view .LVU273
	movl	8+filters(%rip), %ecx
	.loc 1 50 32 view .LVU274
	movl	16(%rsp), %edx
	.loc 1 59 24 view .LVU275
	movl	$30, %edi
	.loc 1 61 24 view .LVU276
	movl	$50, %r8d
	.loc 1 51 32 view .LVU277
	movl	20(%rsp), %eax
.LVL52:
	.loc 1 50 5 is_stmt 1 view .LVU278
	.loc 1 65 30 is_stmt 0 view .LVU279
	movl	$1234, %r9d
	.loc 1 67 30 view .LVU280
	movl	$320, %r10d
	.loc 1 59 24 view .LVU281
	movl	$30, %r11d
	.loc 1 52 26 view .LVU282
	andl	$16646398, %ecx
	.loc 1 58 30 view .LVU283
	orb	$1, 14+filters(%rip)
	.loc 1 65 30 view .LVU284
	movl	$1234, %esi
	.loc 1 52 26 view .LVU285
	orl	$671154177, %ecx
	.loc 1 60 30 view .LVU286
	orb	$1, 18+filters(%rip)
	.loc 1 52 26 view .LVU287
	movl	%ecx, 8+filters(%rip)
	.loc 1 56 30 view .LVU288
	movzwl	12+filters(%rip), %ecx
	.loc 1 62 32 view .LVU289
	andb	$-2, 24+filters(%rip)
	.loc 1 56 30 view .LVU290
	andw	$254, %cx
	.loc 1 63 32 view .LVU291
	orb	$3, 36+filters(%rip)
	.loc 1 56 30 view .LVU292
	orw	$20481, %cx
	.loc 1 66 36 view .LVU293
	orb	$1, 40+filters(%rip)
	.loc 1 56 30 view .LVU294
	movw	%cx, 12+filters(%rip)
	.loc 1 52 26 view .LVU295
	movl	56+filters(%rip), %ecx
	.loc 1 68 33 view .LVU296
	andb	$-2, 44+filters(%rip)
	.loc 1 52 26 view .LVU297
	andl	$16646398, %ecx
	.loc 1 58 30 view .LVU298
	orb	$1, 62+filters(%rip)
	.loc 1 52 26 view .LVU299
	orl	$671154177, %ecx
	.loc 1 50 25 view .LVU300
	movl	%edx, filters(%rip)
	.loc 1 51 5 is_stmt 1 view .LVU301
	.loc 1 52 26 is_stmt 0 view .LVU302
	movl	%ecx, 56+filters(%rip)
	.loc 1 56 30 view .LVU303
	movzwl	60+filters(%rip), %ecx
	.loc 1 51 25 view .LVU304
	movl	%eax, 4+filters(%rip)
	.loc 1 52 5 is_stmt 1 view .LVU305
	.loc 1 53 5 view .LVU306
	.loc 1 54 5 view .LVU307
	.loc 1 55 5 view .LVU308
	.loc 1 56 5 view .LVU309
	.loc 1 57 5 view .LVU310
	.loc 1 58 5 view .LVU311
	.loc 1 59 5 view .LVU312
	.loc 1 56 30 is_stmt 0 view .LVU313
	andw	$254, %cx
	.loc 1 59 24 view .LVU314
	movw	%di, 16+filters(%rip)
	.loc 1 60 5 is_stmt 1 view .LVU315
	.loc 1 61 5 view .LVU316
	.loc 1 67 30 is_stmt 0 view .LVU317
	movl	$320, %edi
	.loc 1 56 30 view .LVU318
	orw	$20481, %cx
	.loc 1 61 24 view .LVU319
	movw	%r8w, 20+filters(%rip)
	.loc 1 62 5 is_stmt 1 view .LVU320
	.loc 1 63 5 view .LVU321
	.loc 1 64 5 view .LVU322
	.loc 1 65 5 view .LVU323
	.loc 1 59 24 is_stmt 0 view .LVU324
	movl	$30, %r8d
	.loc 1 56 30 view .LVU325
	movw	%cx, 60+filters(%rip)
	.loc 1 61 24 view .LVU326
	movl	$50, %ecx
	.loc 1 65 30 view .LVU327
	movw	%r9w, 38+filters(%rip)
	.loc 1 66 5 is_stmt 1 view .LVU328
	.loc 1 67 5 view .LVU329
	.loc 1 61 24 is_stmt 0 view .LVU330
	movl	$50, %r9d
	.loc 1 67 30 view .LVU331
	movw	%r10w, 42+filters(%rip)
	.loc 1 68 5 is_stmt 1 view .LVU332
	.loc 1 49 39 view .LVU333
.LVL53:
	.loc 1 49 15 view .LVU334
	.loc 1 50 5 view .LVU335
	.loc 1 65 30 is_stmt 0 view .LVU336
	movl	$1234, %r10d
	.loc 1 50 25 view .LVU337
	movl	%edx, 48+filters(%rip)
	.loc 1 51 5 is_stmt 1 view .LVU338
	.loc 1 51 25 is_stmt 0 view .LVU339
	movl	%eax, 52+filters(%rip)
	.loc 1 52 5 is_stmt 1 view .LVU340
	.loc 1 53 5 view .LVU341
	.loc 1 54 5 view .LVU342
	.loc 1 55 5 view .LVU343
	.loc 1 56 5 view .LVU344
	.loc 1 57 5 view .LVU345
	.loc 1 58 5 view .LVU346
	.loc 1 59 5 view .LVU347
	.loc 1 59 24 is_stmt 0 view .LVU348
	movw	%r11w, 64+filters(%rip)
	.loc 1 60 5 is_stmt 1 view .LVU349
	.loc 1 67 30 is_stmt 0 view .LVU350
	movl	$320, %r11d
	.loc 1 61 24 view .LVU351
	movw	%cx, 68+filters(%rip)
	.loc 1 52 26 view .LVU352
	movl	104+filters(%rip), %ecx
	.loc 1 60 30 view .LVU353
	orb	$1, 66+filters(%rip)
	.loc 1 61 5 is_stmt 1 view .LVU354
	.loc 1 62 5 view .LVU355
	.loc 1 52 26 is_stmt 0 view .LVU356
	andl	$16646398, %ecx
	.loc 1 62 32 view .LVU357
	andb	$-2, 72+filters(%rip)
	.loc 1 63 5 is_stmt 1 view .LVU358
	.loc 1 64 5 view .LVU359
	.loc 1 52 26 is_stmt 0 view .LVU360
	orl	$671154177, %ecx
	.loc 1 63 32 view .LVU361
	orb	$3, 84+filters(%rip)
	.loc 1 65 5 is_stmt 1 view .LVU362
	.loc 1 52 26 is_stmt 0 view .LVU363
	movl	%ecx, 104+filters(%rip)
	.loc 1 56 30 view .LVU364
	movzwl	108+filters(%rip), %ecx
	.loc 1 66 36 view .LVU365
	orb	$1, 88+filters(%rip)
	.loc 1 56 30 view .LVU366
	andw	$254, %cx
	.loc 1 68 33 view .LVU367
	andb	$-2, 92+filters(%rip)
	.loc 1 56 30 view .LVU368
	orw	$20481, %cx
	.loc 1 58 30 view .LVU369
	orb	$1, 110+filters(%rip)
	.loc 1 60 30 view .LVU370
	orb	$1, 114+filters(%rip)
	.loc 1 62 32 view .LVU371
	andb	$-2, 120+filters(%rip)
	.loc 1 63 32 view .LVU372
	orb	$3, 132+filters(%rip)
	.loc 1 66 36 view .LVU373
	orb	$1, 136+filters(%rip)
	.loc 1 65 30 view .LVU374
	movw	%si, 86+filters(%rip)
	.loc 1 66 5 is_stmt 1 view .LVU375
	.loc 1 67 5 view .LVU376
	.loc 1 61 24 is_stmt 0 view .LVU377
	movl	$50, %esi
	.loc 1 67 30 view .LVU378
	movw	%di, 90+filters(%rip)
	.loc 1 68 5 is_stmt 1 view .LVU379
	.loc 1 49 39 view .LVU380
.LVL54:
	.loc 1 49 15 view .LVU381
	.loc 1 50 5 view .LVU382
	.loc 1 65 30 is_stmt 0 view .LVU383
	movl	$1234, %edi
	.loc 1 50 25 view .LVU384
	movl	%edx, 96+filters(%rip)
	.loc 1 51 5 is_stmt 1 view .LVU385
	.loc 1 51 25 is_stmt 0 view .LVU386
	movl	%eax, 100+filters(%rip)
	.loc 1 52 5 is_stmt 1 view .LVU387
	.loc 1 53 5 view .LVU388
	.loc 1 54 5 view .LVU389
	.loc 1 55 5 view .LVU390
	.loc 1 56 5 view .LVU391
	.loc 1 57 5 view .LVU392
	.loc 1 58 5 view .LVU393
	.loc 1 59 5 view .LVU394
	.loc 1 56 30 is_stmt 0 view .LVU395
	movw	%cx, 108+filters(%rip)
	.loc 1 59 24 view .LVU396
	movw	%r8w, 112+filters(%rip)
	.loc 1 60 5 is_stmt 1 view .LVU397
	.loc 1 61 5 view .LVU398
	.loc 1 67 30 is_stmt 0 view .LVU399
	movl	$320, %r8d
	.loc 1 61 24 view .LVU400
	movw	%r9w, 116+filters(%rip)
	.loc 1 62 5 is_stmt 1 view .LVU401
	.loc 1 63 5 view .LVU402
	.loc 1 64 5 view .LVU403
	.loc 1 65 5 view .LVU404
	.loc 1 59 24 is_stmt 0 view .LVU405
	movl	$30, %r9d
	.loc 1 65 30 view .LVU406
	movw	%r10w, 134+filters(%rip)
	.loc 1 66 5 is_stmt 1 view .LVU407
	.loc 1 67 5 view .LVU408
	.loc 1 61 24 is_stmt 0 view .LVU409
	movl	$50, %r10d
	.loc 1 67 30 view .LVU410
	movw	%r11w, 138+filters(%rip)
	.loc 1 68 5 is_stmt 1 view .LVU411
	.loc 1 52 26 is_stmt 0 view .LVU412
	movl	152+filters(%rip), %ecx
	.loc 1 65 30 view .LVU413
	movl	$1234, %r11d
	.loc 1 68 33 view .LVU414
	andb	$-2, 140+filters(%rip)
	.loc 1 49 39 is_stmt 1 view .LVU415
.LVL55:
	.loc 1 49 15 view .LVU416
	.loc 1 50 5 view .LVU417
	.loc 1 52 26 is_stmt 0 view .LVU418
	andl	$16646398, %ecx
	.loc 1 50 25 view .LVU419
	movl	%edx, 144+filters(%rip)
	.loc 1 51 5 is_stmt 1 view .LVU420
	.loc 1 52 26 is_stmt 0 view .LVU421
	orl	$671154177, %ecx
	.loc 1 51 25 view .LVU422
	movl	%eax, 148+filters(%rip)
	.loc 1 52 5 is_stmt 1 view .LVU423
	.loc 1 53 5 view .LVU424
	.loc 1 54 5 view .LVU425
	.loc 1 55 5 view .LVU426
	.loc 1 56 5 view .LVU427
	.loc 1 52 26 is_stmt 0 view .LVU428
	movl	%ecx, 152+filters(%rip)
	.loc 1 57 5 is_stmt 1 view .LVU429
	.loc 1 58 5 view .LVU430
	.loc 1 56 30 is_stmt 0 view .LVU431
	movzwl	156+filters(%rip), %ecx
	.loc 1 61 24 view .LVU432
	movw	%si, 164+filters(%rip)
	.loc 1 59 24 view .LVU433
	movl	$30, %esi
	.loc 1 56 30 view .LVU434
	andw	$254, %cx
	.loc 1 65 30 view .LVU435
	movw	%di, 182+filters(%rip)
	.loc 1 61 24 view .LVU436
	movl	$50, %edi
	.loc 1 56 30 view .LVU437
	orw	$20481, %cx
	.loc 1 58 30 view .LVU438
	orb	$1, 158+filters(%rip)
	.loc 1 59 5 is_stmt 1 view .LVU439
	.loc 1 56 30 is_stmt 0 view .LVU440
	movw	%cx, 156+filters(%rip)
	.loc 1 59 24 view .LVU441
	movl	$30, %ecx
	movw	%cx, 160+filters(%rip)
	.loc 1 60 5 is_stmt 1 view .LVU442
	.loc 1 52 26 is_stmt 0 view .LVU443
	movl	200+filters(%rip), %ecx
	.loc 1 60 30 view .LVU444
	orb	$1, 162+filters(%rip)
	.loc 1 61 5 is_stmt 1 view .LVU445
	.loc 1 62 5 view .LVU446
	.loc 1 52 26 is_stmt 0 view .LVU447
	andl	$16646398, %ecx
	.loc 1 62 32 view .LVU448
	andb	$-2, 168+filters(%rip)
	.loc 1 63 5 is_stmt 1 view .LVU449
	.loc 1 64 5 view .LVU450
	.loc 1 52 26 is_stmt 0 view .LVU451
	orl	$671154177, %ecx
	.loc 1 63 32 view .LVU452
	orb	$3, 180+filters(%rip)
	.loc 1 65 5 is_stmt 1 view .LVU453
	.loc 1 66 5 view .LVU454
	.loc 1 52 26 is_stmt 0 view .LVU455
	movl	%ecx, 200+filters(%rip)
	.loc 1 56 30 view .LVU456
	movzwl	204+filters(%rip), %ecx
	.loc 1 66 36 view .LVU457
	orb	$1, 184+filters(%rip)
	.loc 1 67 5 is_stmt 1 view .LVU458
	.loc 1 56 30 is_stmt 0 view .LVU459
	andw	$254, %cx
	.loc 1 68 33 view .LVU460
	andb	$-2, 188+filters(%rip)
	.loc 1 56 30 view .LVU461
	orw	$20481, %cx
	.loc 1 58 30 view .LVU462
	orb	$1, 206+filters(%rip)
	.loc 1 56 30 view .LVU463
	movw	%cx, 204+filters(%rip)
	.loc 1 67 30 view .LVU464
	movl	$320, %ecx
	movw	%r8w, 186+filters(%rip)
	.loc 1 68 5 is_stmt 1 view .LVU465
	.loc 1 49 39 view .LVU466
.LVL56:
	.loc 1 49 15 view .LVU467
	.loc 1 50 5 view .LVU468
	.loc 1 65 30 is_stmt 0 view .LVU469
	movl	$1234, %r8d
	.loc 1 50 25 view .LVU470
	movl	%edx, 192+filters(%rip)
	.loc 1 51 5 is_stmt 1 view .LVU471
	.loc 1 51 25 is_stmt 0 view .LVU472
	movl	%eax, 196+filters(%rip)
	.loc 1 52 5 is_stmt 1 view .LVU473
	.loc 1 53 5 view .LVU474
	.loc 1 54 5 view .LVU475
	.loc 1 55 5 view .LVU476
	.loc 1 56 5 view .LVU477
	.loc 1 57 5 view .LVU478
	.loc 1 58 5 view .LVU479
	.loc 1 59 5 view .LVU480
	.loc 1 59 24 is_stmt 0 view .LVU481
	movw	%r9w, 208+filters(%rip)
	.loc 1 60 5 is_stmt 1 view .LVU482
	.loc 1 67 30 is_stmt 0 view .LVU483
	movl	$320, %r9d
	movw	%cx, 234+filters(%rip)
	.loc 1 52 26 view .LVU484
	movl	248+filters(%rip), %ecx
	.loc 1 60 30 view .LVU485
	orb	$1, 210+filters(%rip)
	.loc 1 61 5 is_stmt 1 view .LVU486
	.loc 1 52 26 is_stmt 0 view .LVU487
	andl	$16646398, %ecx
	.loc 1 62 32 view .LVU488
	andb	$-2, 216+filters(%rip)
	.loc 1 52 26 view .LVU489
	orl	$671154177, %ecx
	.loc 1 63 32 view .LVU490
	orb	$3, 228+filters(%rip)
	.loc 1 52 26 view .LVU491
	movl	%ecx, 248+filters(%rip)
	.loc 1 56 30 view .LVU492
	movzwl	252+filters(%rip), %ecx
	.loc 1 66 36 view .LVU493
	orb	$1, 232+filters(%rip)
	.loc 1 56 30 view .LVU494
	andw	$254, %cx
	.loc 1 68 33 view .LVU495
	andb	$-2, 236+filters(%rip)
	.loc 1 56 30 view .LVU496
	orw	$20481, %cx
	.loc 1 58 30 view .LVU497
	orb	$1, 254+filters(%rip)
	.loc 1 60 30 view .LVU498
	orb	$1, 258+filters(%rip)
	.loc 1 62 32 view .LVU499
	andb	$-2, 264+filters(%rip)
	.loc 1 63 32 view .LVU500
	orb	$3, 276+filters(%rip)
	.loc 1 66 36 view .LVU501
	orb	$1, 280+filters(%rip)
	.loc 1 61 24 view .LVU502
	movw	%r10w, 212+filters(%rip)
	.loc 1 62 5 is_stmt 1 view .LVU503
	.loc 1 63 5 view .LVU504
	.loc 1 64 5 view .LVU505
	.loc 1 65 5 view .LVU506
	.loc 1 59 24 is_stmt 0 view .LVU507
	movl	$30, %r10d
	.loc 1 65 30 view .LVU508
	movw	%r11w, 230+filters(%rip)
	.loc 1 66 5 is_stmt 1 view .LVU509
	.loc 1 67 5 view .LVU510
	.loc 1 68 5 view .LVU511
	.loc 1 49 39 view .LVU512
.LVL57:
	.loc 1 49 15 view .LVU513
	.loc 1 50 5 view .LVU514
	.loc 1 61 24 is_stmt 0 view .LVU515
	movl	$50, %r11d
	.loc 1 50 25 view .LVU516
	movl	%edx, 240+filters(%rip)
	.loc 1 51 5 is_stmt 1 view .LVU517
	.loc 1 51 25 is_stmt 0 view .LVU518
	movl	%eax, 244+filters(%rip)
	.loc 1 52 5 is_stmt 1 view .LVU519
	.loc 1 53 5 view .LVU520
	.loc 1 54 5 view .LVU521
	.loc 1 55 5 view .LVU522
	.loc 1 56 5 view .LVU523
	.loc 1 57 5 view .LVU524
	.loc 1 58 5 view .LVU525
	.loc 1 59 5 view .LVU526
	.loc 1 56 30 is_stmt 0 view .LVU527
	movw	%cx, 252+filters(%rip)
	.loc 1 59 24 view .LVU528
	movw	%si, 256+filters(%rip)
	.loc 1 60 5 is_stmt 1 view .LVU529
	.loc 1 61 5 view .LVU530
	.loc 1 67 30 is_stmt 0 view .LVU531
	movl	$320, %esi
	.loc 1 61 24 view .LVU532
	movw	%di, 260+filters(%rip)
	.loc 1 62 5 is_stmt 1 view .LVU533
	.loc 1 63 5 view .LVU534
	.loc 1 64 5 view .LVU535
	.loc 1 65 5 view .LVU536
	.loc 1 59 24 is_stmt 0 view .LVU537
	movl	$30, %edi
	.loc 1 65 30 view .LVU538
	movw	%r8w, 278+filters(%rip)
	.loc 1 66 5 is_stmt 1 view .LVU539
	.loc 1 67 5 view .LVU540
	.loc 1 61 24 is_stmt 0 view .LVU541
	movl	$50, %r8d
	.loc 1 67 30 view .LVU542
	movw	%r9w, 282+filters(%rip)
	.loc 1 68 5 is_stmt 1 view .LVU543
	.loc 1 52 26 is_stmt 0 view .LVU544
	movl	296+filters(%rip), %ecx
	.loc 1 65 30 view .LVU545
	movl	$1234, %r9d
	.loc 1 68 33 view .LVU546
	andb	$-2, 284+filters(%rip)
	.loc 1 49 39 is_stmt 1 view .LVU547
.LVL58:
	.loc 1 49 15 view .LVU548
	.loc 1 50 5 view .LVU549
	.loc 1 52 26 is_stmt 0 view .LVU550
	andl	$16646398, %ecx
	.loc 1 50 25 view .LVU551
	movl	%edx, 288+filters(%rip)
	.loc 1 51 5 is_stmt 1 view .LVU552
	.loc 1 52 26 is_stmt 0 view .LVU553
	orl	$671154177, %ecx
	.loc 1 51 25 view .LVU554
	movl	%eax, 292+filters(%rip)
	.loc 1 52 5 is_stmt 1 view .LVU555
	.loc 1 53 5 view .LVU556
	.loc 1 54 5 view .LVU557
	.loc 1 55 5 view .LVU558
	.loc 1 56 5 view .LVU559
	.loc 1 57 5 view .LVU560
	.loc 1 58 5 view .LVU561
	.loc 1 52 26 is_stmt 0 view .LVU562
	movl	%ecx, 296+filters(%rip)
	.loc 1 56 30 view .LVU563
	movzwl	300+filters(%rip), %ecx
	.loc 1 59 24 view .LVU564
	movw	%r10w, 304+filters(%rip)
	.loc 1 67 30 view .LVU565
	movl	$320, %r10d
	.loc 1 56 30 view .LVU566
	andw	$254, %cx
	.loc 1 61 24 view .LVU567
	movw	%r11w, 308+filters(%rip)
	.loc 1 59 24 view .LVU568
	movl	$30, %r11d
	.loc 1 56 30 view .LVU569
	orw	$20481, %cx
	.loc 1 58 30 view .LVU570
	orb	$1, 302+filters(%rip)
	.loc 1 59 5 is_stmt 1 view .LVU571
	.loc 1 60 5 view .LVU572
	.loc 1 56 30 is_stmt 0 view .LVU573
	movw	%cx, 300+filters(%rip)
	.loc 1 65 30 view .LVU574
	movl	$1234, %ecx
	movw	%cx, 326+filters(%rip)
	.loc 1 52 26 view .LVU575
	movl	344+filters(%rip), %ecx
	.loc 1 60 30 view .LVU576
	orb	$1, 306+filters(%rip)
	.loc 1 61 5 is_stmt 1 view .LVU577
	.loc 1 62 5 view .LVU578
	.loc 1 52 26 is_stmt 0 view .LVU579
	andl	$16646398, %ecx
	.loc 1 62 32 view .LVU580
	andb	$-2, 312+filters(%rip)
	.loc 1 63 5 is_stmt 1 view .LVU581
	.loc 1 64 5 view .LVU582
	.loc 1 52 26 is_stmt 0 view .LVU583
	orl	$671154177, %ecx
	.loc 1 63 32 view .LVU584
	orb	$3, 324+filters(%rip)
	.loc 1 65 5 is_stmt 1 view .LVU585
	.loc 1 66 5 view .LVU586
	.loc 1 52 26 is_stmt 0 view .LVU587
	movl	%ecx, 344+filters(%rip)
	.loc 1 56 30 view .LVU588
	movzwl	348+filters(%rip), %ecx
	.loc 1 66 36 view .LVU589
	orb	$1, 328+filters(%rip)
	.loc 1 67 5 is_stmt 1 view .LVU590
	.loc 1 56 30 is_stmt 0 view .LVU591
	andw	$254, %cx
	.loc 1 68 33 view .LVU592
	andb	$-2, 332+filters(%rip)
	.loc 1 56 30 view .LVU593
	orw	$20481, %cx
	.loc 1 58 30 view .LVU594
	orb	$1, 350+filters(%rip)
	.loc 1 67 30 view .LVU595
	movw	%si, 330+filters(%rip)
	.loc 1 68 5 is_stmt 1 view .LVU596
	.loc 1 49 39 view .LVU597
.LVL59:
	.loc 1 49 15 view .LVU598
	.loc 1 50 5 view .LVU599
	.loc 1 65 30 is_stmt 0 view .LVU600
	movl	$1234, %esi
	.loc 1 50 25 view .LVU601
	movl	%edx, 336+filters(%rip)
	.loc 1 51 5 is_stmt 1 view .LVU602
	.loc 1 51 25 is_stmt 0 view .LVU603
	movl	%eax, 340+filters(%rip)
	.loc 1 52 5 is_stmt 1 view .LVU604
	.loc 1 53 5 view .LVU605
	.loc 1 54 5 view .LVU606
	.loc 1 55 5 view .LVU607
	.loc 1 56 5 view .LVU608
	.loc 1 57 5 view .LVU609
	.loc 1 58 5 view .LVU610
	.loc 1 59 5 view .LVU611
	.loc 1 56 30 is_stmt 0 view .LVU612
	movw	%cx, 348+filters(%rip)
	.loc 1 59 24 view .LVU613
	movw	%di, 352+filters(%rip)
	.loc 1 60 5 is_stmt 1 view .LVU614
	.loc 1 52 26 is_stmt 0 view .LVU615
	movl	392+filters(%rip), %ecx
	.loc 1 67 30 view .LVU616
	movl	$320, %edi
	.loc 1 60 30 view .LVU617
	orb	$1, 354+filters(%rip)
	.loc 1 61 5 is_stmt 1 view .LVU618
	.loc 1 52 26 is_stmt 0 view .LVU619
	andl	$16646398, %ecx
	.loc 1 62 32 view .LVU620
	andb	$-2, 360+filters(%rip)
	.loc 1 52 26 view .LVU621
	orl	$671154177, %ecx
	.loc 1 63 32 view .LVU622
	orb	$3, 372+filters(%rip)
	.loc 1 52 26 view .LVU623
	movl	%ecx, 392+filters(%rip)
	.loc 1 56 30 view .LVU624
	movzwl	396+filters(%rip), %ecx
	.loc 1 66 36 view .LVU625
	orb	$1, 376+filters(%rip)
	.loc 1 56 30 view .LVU626
	andw	$254, %cx
	.loc 1 68 33 view .LVU627
	andb	$-2, 380+filters(%rip)
	.loc 1 56 30 view .LVU628
	orw	$20481, %cx
	.loc 1 58 30 view .LVU629
	orb	$1, 398+filters(%rip)
	.loc 1 56 30 view .LVU630
	movw	%cx, 396+filters(%rip)
	.loc 1 61 24 view .LVU631
	movl	$50, %ecx
	.loc 1 60 30 view .LVU632
	orb	$1, 402+filters(%rip)
	.loc 1 62 32 view .LVU633
	andb	$-2, 408+filters(%rip)
	.loc 1 63 32 view .LVU634
	orb	$3, 420+filters(%rip)
	.loc 1 66 36 view .LVU635
	orb	$1, 424+filters(%rip)
	.loc 1 61 24 view .LVU636
	movw	%r8w, 356+filters(%rip)
	.loc 1 62 5 is_stmt 1 view .LVU637
	.loc 1 63 5 view .LVU638
	.loc 1 64 5 view .LVU639
	.loc 1 65 5 view .LVU640
	.loc 1 59 24 is_stmt 0 view .LVU641
	movl	$30, %r8d
	.loc 1 65 30 view .LVU642
	movw	%r9w, 374+filters(%rip)
	.loc 1 66 5 is_stmt 1 view .LVU643
	.loc 1 67 5 view .LVU644
	.loc 1 61 24 is_stmt 0 view .LVU645
	movl	$50, %r9d
	.loc 1 67 30 view .LVU646
	movw	%r10w, 378+filters(%rip)
	.loc 1 68 5 is_stmt 1 view .LVU647
	.loc 1 49 39 view .LVU648
.LVL60:
	.loc 1 49 15 view .LVU649
	.loc 1 50 5 view .LVU650
	.loc 1 65 30 is_stmt 0 view .LVU651
	movl	$1234, %r10d
	.loc 1 50 25 view .LVU652
	movl	%edx, 384+filters(%rip)
	.loc 1 51 5 is_stmt 1 view .LVU653
	.loc 1 51 25 is_stmt 0 view .LVU654
	movl	%eax, 388+filters(%rip)
	.loc 1 52 5 is_stmt 1 view .LVU655
	.loc 1 53 5 view .LVU656
	.loc 1 54 5 view .LVU657
	.loc 1 55 5 view .LVU658
	.loc 1 56 5 view .LVU659
	.loc 1 57 5 view .LVU660
	.loc 1 58 5 view .LVU661
	.loc 1 59 5 view .LVU662
	.loc 1 59 24 is_stmt 0 view .LVU663
	movw	%r11w, 400+filters(%rip)
	.loc 1 60 5 is_stmt 1 view .LVU664
	.loc 1 61 5 view .LVU665
	.loc 1 67 30 is_stmt 0 view .LVU666
	movl	$320, %r11d
	.loc 1 61 24 view .LVU667
	movw	%cx, 404+filters(%rip)
	.loc 1 62 5 is_stmt 1 view .LVU668
	.loc 1 63 5 view .LVU669
	.loc 1 64 5 view .LVU670
	.loc 1 65 5 view .LVU671
	.loc 1 65 30 is_stmt 0 view .LVU672
	movw	%si, 422+filters(%rip)
	.loc 1 66 5 is_stmt 1 view .LVU673
	.loc 1 67 5 view .LVU674
	.loc 1 61 24 is_stmt 0 view .LVU675
	movl	$50, %esi
	.loc 1 67 30 view .LVU676
	movw	%di, 426+filters(%rip)
	.loc 1 68 5 is_stmt 1 view .LVU677
	.loc 1 52 26 is_stmt 0 view .LVU678
	movl	440+filters(%rip), %ecx
	.loc 1 65 30 view .LVU679
	movl	$1234, %edi
	.loc 1 68 33 view .LVU680
	andb	$-2, 428+filters(%rip)
	.loc 1 49 39 is_stmt 1 view .LVU681
.LVL61:
	.loc 1 49 15 view .LVU682
	.loc 1 50 5 view .LVU683
	.loc 1 52 26 is_stmt 0 view .LVU684
	andl	$16646398, %ecx
	.loc 1 58 30 view .LVU685
	orb	$1, 446+filters(%rip)
	.loc 1 52 26 view .LVU686
	orl	$671154177, %ecx
	.loc 1 60 30 view .LVU687
	orb	$1, 450+filters(%rip)
	.loc 1 52 26 view .LVU688
	movl	%ecx, 440+filters(%rip)
	.loc 1 56 30 view .LVU689
	movzwl	444+filters(%rip), %ecx
	.loc 1 50 25 view .LVU690
	movl	%edx, 432+filters(%rip)
	.loc 1 51 5 is_stmt 1 view .LVU691
	.loc 1 56 30 is_stmt 0 view .LVU692
	andw	$254, %cx
	.loc 1 51 25 view .LVU693
	movl	%eax, 436+filters(%rip)
	.loc 1 52 5 is_stmt 1 view .LVU694
	.loc 1 53 5 view .LVU695
	.loc 1 54 5 view .LVU696
	.loc 1 55 5 view .LVU697
	.loc 1 56 5 view .LVU698
	.loc 1 57 5 view .LVU699
	.loc 1 58 5 view .LVU700
	.loc 1 59 5 view .LVU701
	.loc 1 56 30 is_stmt 0 view .LVU702
	orw	$20481, %cx
	.loc 1 62 32 view .LVU703
	andb	$-2, 456+filters(%rip)
	.loc 1 56 30 view .LVU704
	movw	%cx, 444+filters(%rip)
	.loc 1 52 26 view .LVU705
	movl	488+filters(%rip), %ecx
	.loc 1 63 32 view .LVU706
	orb	$3, 468+filters(%rip)
	.loc 1 52 26 view .LVU707
	andl	$16646398, %ecx
	.loc 1 66 36 view .LVU708
	orb	$1, 472+filters(%rip)
	.loc 1 52 26 view .LVU709
	orl	$671154177, %ecx
	.loc 1 68 33 view .LVU710
	andb	$-2, 476+filters(%rip)
	.loc 1 52 26 view .LVU711
	movl	%ecx, 488+filters(%rip)
	.loc 1 56 30 view .LVU712
	movzwl	492+filters(%rip), %ecx
	.loc 1 58 30 view .LVU713
	orb	$1, 494+filters(%rip)
	.loc 1 56 30 view .LVU714
	andw	$254, %cx
	.loc 1 59 24 view .LVU715
	movw	%r8w, 448+filters(%rip)
	.loc 1 60 5 is_stmt 1 view .LVU716
	.loc 1 61 5 view .LVU717
	.loc 1 67 30 is_stmt 0 view .LVU718
	movl	$320, %r8d
	.loc 1 56 30 view .LVU719
	orw	$20481, %cx
	.loc 1 61 24 view .LVU720
	movw	%r9w, 452+filters(%rip)
	.loc 1 62 5 is_stmt 1 view .LVU721
	.loc 1 63 5 view .LVU722
	.loc 1 64 5 view .LVU723
	.loc 1 65 5 view .LVU724
	.loc 1 59 24 is_stmt 0 view .LVU725
	movl	$30, %r9d
	.loc 1 56 30 view .LVU726
	movw	%cx, 492+filters(%rip)
	.loc 1 59 24 view .LVU727
	movl	$30, %ecx
	.loc 1 65 30 view .LVU728
	movw	%r10w, 470+filters(%rip)
	.loc 1 66 5 is_stmt 1 view .LVU729
	.loc 1 67 5 view .LVU730
	.loc 1 61 24 is_stmt 0 view .LVU731
	movl	$50, %r10d
	.loc 1 67 30 view .LVU732
	movw	%r11w, 474+filters(%rip)
	.loc 1 68 5 is_stmt 1 view .LVU733
	.loc 1 49 39 view .LVU734
.LVL62:
	.loc 1 49 15 view .LVU735
	.loc 1 50 5 view .LVU736
	.loc 1 65 30 is_stmt 0 view .LVU737
	movl	$1234, %r11d
	.loc 1 50 25 view .LVU738
	movl	%edx, 480+filters(%rip)
	.loc 1 51 5 is_stmt 1 view .LVU739
	.loc 1 51 25 is_stmt 0 view .LVU740
	movl	%eax, 484+filters(%rip)
	.loc 1 52 5 is_stmt 1 view .LVU741
	.loc 1 53 5 view .LVU742
	.loc 1 54 5 view .LVU743
	.loc 1 55 5 view .LVU744
	.loc 1 56 5 view .LVU745
	.loc 1 57 5 view .LVU746
	.loc 1 58 5 view .LVU747
	.loc 1 59 5 view .LVU748
	.loc 1 59 24 is_stmt 0 view .LVU749
	movw	%cx, 496+filters(%rip)
	.loc 1 60 5 is_stmt 1 view .LVU750
	.loc 1 52 26 is_stmt 0 view .LVU751
	movl	536+filters(%rip), %ecx
	.loc 1 60 30 view .LVU752
	orb	$1, 498+filters(%rip)
	.loc 1 61 5 is_stmt 1 view .LVU753
	.loc 1 52 26 is_stmt 0 view .LVU754
	andl	$16646398, %ecx
	.loc 1 62 32 view .LVU755
	andb	$-2, 504+filters(%rip)
	.loc 1 52 26 view .LVU756
	orl	$671154177, %ecx
	.loc 1 63 32 view .LVU757
	orb	$3, 516+filters(%rip)
	.loc 1 52 26 view .LVU758
	movl	%ecx, 536+filters(%rip)
	.loc 1 56 30 view .LVU759
	movzwl	540+filters(%rip), %ecx
	.loc 1 66 36 view .LVU760
	orb	$1, 520+filters(%rip)
	.loc 1 56 30 view .LVU761
	andw	$254, %cx
	.loc 1 68 33 view .LVU762
	andb	$-2, 524+filters(%rip)
	.loc 1 56 30 view .LVU763
	orw	$20481, %cx
	.loc 1 58 30 view .LVU764
	orb	$1, 542+filters(%rip)
	.loc 1 56 30 view .LVU765
	movw	%cx, 540+filters(%rip)
	.loc 1 67 30 view .LVU766
	movl	$320, %ecx
	.loc 1 60 30 view .LVU767
	orb	$1, 546+filters(%rip)
	.loc 1 62 32 view .LVU768
	andb	$-2, 552+filters(%rip)
	.loc 1 63 32 view .LVU769
	orb	$3, 564+filters(%rip)
	.loc 1 66 36 view .LVU770
	orb	$1, 568+filters(%rip)
	.loc 1 61 24 view .LVU771
	movw	%si, 500+filters(%rip)
	.loc 1 62 5 is_stmt 1 view .LVU772
	.loc 1 63 5 view .LVU773
	.loc 1 64 5 view .LVU774
	.loc 1 65 5 view .LVU775
	.loc 1 59 24 is_stmt 0 view .LVU776
	movl	$30, %esi
	.loc 1 65 30 view .LVU777
	movw	%di, 518+filters(%rip)
	.loc 1 66 5 is_stmt 1 view .LVU778
	.loc 1 67 5 view .LVU779
	.loc 1 61 24 is_stmt 0 view .LVU780
	movl	$50, %edi
	.loc 1 67 30 view .LVU781
	movw	%r8w, 522+filters(%rip)
	.loc 1 68 5 is_stmt 1 view .LVU782
	.loc 1 49 39 view .LVU783
.LVL63:
	.loc 1 49 15 view .LVU784
	.loc 1 50 5 view .LVU785
	.loc 1 65 30 is_stmt 0 view .LVU786
	movl	$1234, %r8d
	.loc 1 50 25 view .LVU787
	movl	%edx, 528+filters(%rip)
	.loc 1 51 5 is_stmt 1 view .LVU788
	.loc 1 51 25 is_stmt 0 view .LVU789
	movl	%eax, 532+filters(%rip)
	.loc 1 52 5 is_stmt 1 view .LVU790
	.loc 1 53 5 view .LVU791
	.loc 1 54 5 view .LVU792
	.loc 1 55 5 view .LVU793
	.loc 1 56 5 view .LVU794
	.loc 1 57 5 view .LVU795
	.loc 1 58 5 view .LVU796
	.loc 1 59 5 view .LVU797
	.loc 1 59 24 is_stmt 0 view .LVU798
	movw	%r9w, 544+filters(%rip)
	.loc 1 60 5 is_stmt 1 view .LVU799
	.loc 1 61 5 view .LVU800
	.loc 1 67 30 is_stmt 0 view .LVU801
	movl	$320, %r9d
	.loc 1 61 24 view .LVU802
	movw	%r10w, 548+filters(%rip)
	.loc 1 62 5 is_stmt 1 view .LVU803
	.loc 1 63 5 view .LVU804
	.loc 1 64 5 view .LVU805
	.loc 1 65 5 view .LVU806
	.loc 1 59 24 is_stmt 0 view .LVU807
	movl	$30, %r10d
	.loc 1 65 30 view .LVU808
	movw	%r11w, 566+filters(%rip)
	.loc 1 66 5 is_stmt 1 view .LVU809
	.loc 1 67 5 view .LVU810
	.loc 1 61 24 is_stmt 0 view .LVU811
	movl	$50, %r11d
	.loc 1 67 30 view .LVU812
	movw	%cx, 570+filters(%rip)
	.loc 1 68 5 is_stmt 1 view .LVU813
	.loc 1 52 26 is_stmt 0 view .LVU814
	movl	584+filters(%rip), %ecx
	.loc 1 68 33 view .LVU815
	andb	$-2, 572+filters(%rip)
	.loc 1 49 39 is_stmt 1 view .LVU816
.LVL64:
	.loc 1 49 15 view .LVU817
	.loc 1 50 5 view .LVU818
	.loc 1 52 26 is_stmt 0 view .LVU819
	andl	$16646398, %ecx
	.loc 1 58 30 view .LVU820
	orb	$1, 590+filters(%rip)
	.loc 1 52 26 view .LVU821
	orl	$671154177, %ecx
	.loc 1 60 30 view .LVU822
	orb	$1, 594+filters(%rip)
	.loc 1 52 26 view .LVU823
	movl	%ecx, 584+filters(%rip)
	.loc 1 56 30 view .LVU824
	movzwl	588+filters(%rip), %ecx
	.loc 1 62 32 view .LVU825
	andb	$-2, 600+filters(%rip)
	.loc 1 56 30 view .LVU826
	andw	$254, %cx
	.loc 1 63 32 view .LVU827
	orb	$3, 612+filters(%rip)
	.loc 1 56 30 view .LVU828
	orw	$20481, %cx
	.loc 1 66 36 view .LVU829
	orb	$1, 616+filters(%rip)
	.loc 1 56 30 view .LVU830
	movw	%cx, 588+filters(%rip)
	.loc 1 52 26 view .LVU831
	movl	632+filters(%rip), %ecx
	.loc 1 68 33 view .LVU832
	andb	$-2, 620+filters(%rip)
	.loc 1 52 26 view .LVU833
	andl	$16646398, %ecx
	.loc 1 58 30 view .LVU834
	orb	$1, 638+filters(%rip)
	.loc 1 52 26 view .LVU835
	orl	$671154177, %ecx
	.loc 1 50 25 view .LVU836
	movl	%edx, 576+filters(%rip)
	.loc 1 51 5 is_stmt 1 view .LVU837
	.loc 1 52 26 is_stmt 0 view .LVU838
	movl	%ecx, 632+filters(%rip)
	.loc 1 56 30 view .LVU839
	movzwl	636+filters(%rip), %ecx
	.loc 1 51 25 view .LVU840
	movl	%eax, 580+filters(%rip)
	.loc 1 52 5 is_stmt 1 view .LVU841
	.loc 1 53 5 view .LVU842
	.loc 1 54 5 view .LVU843
	.loc 1 55 5 view .LVU844
	.loc 1 56 5 view .LVU845
	.loc 1 57 5 view .LVU846
	.loc 1 58 5 view .LVU847
	.loc 1 59 5 view .LVU848
	.loc 1 56 30 is_stmt 0 view .LVU849
	andw	$254, %cx
	.loc 1 59 24 view .LVU850
	movw	%si, 592+filters(%rip)
	.loc 1 60 5 is_stmt 1 view .LVU851
	.loc 1 61 5 view .LVU852
	.loc 1 67 30 is_stmt 0 view .LVU853
	movl	$320, %esi
	.loc 1 56 30 view .LVU854
	orw	$20481, %cx
	.loc 1 61 24 view .LVU855
	movw	%di, 596+filters(%rip)
	.loc 1 62 5 is_stmt 1 view .LVU856
	.loc 1 63 5 view .LVU857
	.loc 1 64 5 view .LVU858
	.loc 1 65 5 view .LVU859
	.loc 1 59 24 is_stmt 0 view .LVU860
	movl	$30, %edi
	.loc 1 65 30 view .LVU861
	movw	%r8w, 614+filters(%rip)
	.loc 1 66 5 is_stmt 1 view .LVU862
	.loc 1 67 5 view .LVU863
	.loc 1 61 24 is_stmt 0 view .LVU864
	movl	$50, %r8d
	.loc 1 67 30 view .LVU865
	movw	%r9w, 618+filters(%rip)
	.loc 1 68 5 is_stmt 1 view .LVU866
	.loc 1 49 39 view .LVU867
.LVL65:
	.loc 1 49 15 view .LVU868
	.loc 1 50 5 view .LVU869
	.loc 1 65 30 is_stmt 0 view .LVU870
	movl	$1234, %r9d
	.loc 1 50 25 view .LVU871
	movl	%edx, 624+filters(%rip)
	.loc 1 51 5 is_stmt 1 view .LVU872
	.loc 1 51 25 is_stmt 0 view .LVU873
	movl	%eax, 628+filters(%rip)
	.loc 1 52 5 is_stmt 1 view .LVU874
	.loc 1 53 5 view .LVU875
	.loc 1 54 5 view .LVU876
	.loc 1 55 5 view .LVU877
	.loc 1 56 5 view .LVU878
	.loc 1 57 5 view .LVU879
	.loc 1 56 30 is_stmt 0 view .LVU880
	movw	%cx, 636+filters(%rip)
	.loc 1 58 5 is_stmt 1 view .LVU881
	.loc 1 59 5 view .LVU882
	.loc 1 65 30 is_stmt 0 view .LVU883
	movl	$1234, %ecx
	.loc 1 59 24 view .LVU884
	movw	%r10w, 640+filters(%rip)
	.loc 1 60 5 is_stmt 1 view .LVU885
	.loc 1 67 30 is_stmt 0 view .LVU886
	movl	$320, %r10d
	.loc 1 51 25 view .LVU887
	movl	%eax, 676+filters(%rip)
	.loc 1 52 26 view .LVU888
	movl	680+filters(%rip), %eax
	.loc 1 67 30 view .LVU889
	movw	%si, 666+filters(%rip)
	.loc 1 71 7 view .LVU890
	leaq	.LC2(%rip), %rsi
	.loc 1 52 26 view .LVU891
	andl	$16646398, %eax
	.loc 1 50 25 view .LVU892
	movl	%edx, 672+filters(%rip)
	.loc 1 71 7 view .LVU893
	movq	%rbp, %rdx
	.loc 1 52 26 view .LVU894
	orl	$671154177, %eax
	.loc 1 59 24 view .LVU895
	movw	%di, 688+filters(%rip)
	.loc 1 71 7 view .LVU896
	movl	$2, %edi
	.loc 1 52 26 view .LVU897
	movl	%eax, 680+filters(%rip)
	.loc 1 56 30 view .LVU898
	movzwl	684+filters(%rip), %eax
	.loc 1 60 30 view .LVU899
	orb	$1, 642+filters(%rip)
	.loc 1 61 5 is_stmt 1 view .LVU900
	.loc 1 56 30 is_stmt 0 view .LVU901
	andw	$254, %ax
	.loc 1 62 32 view .LVU902
	andb	$-2, 648+filters(%rip)
	.loc 1 56 30 view .LVU903
	orw	$20481, %ax
	.loc 1 63 32 view .LVU904
	orb	$3, 660+filters(%rip)
	.loc 1 66 36 view .LVU905
	orb	$1, 664+filters(%rip)
	.loc 1 68 33 view .LVU906
	andb	$-2, 668+filters(%rip)
	.loc 1 58 30 view .LVU907
	orb	$1, 686+filters(%rip)
	.loc 1 60 30 view .LVU908
	orb	$1, 690+filters(%rip)
	.loc 1 62 32 view .LVU909
	andb	$-2, 696+filters(%rip)
	.loc 1 63 32 view .LVU910
	orb	$3, 708+filters(%rip)
	.loc 1 66 36 view .LVU911
	orb	$1, 712+filters(%rip)
	.loc 1 61 24 view .LVU912
	movw	%r11w, 644+filters(%rip)
	.loc 1 62 5 is_stmt 1 view .LVU913
	.loc 1 63 5 view .LVU914
	.loc 1 64 5 view .LVU915
	.loc 1 65 5 view .LVU916
	.loc 1 65 30 is_stmt 0 view .LVU917
	movw	%cx, 662+filters(%rip)
	.loc 1 66 5 is_stmt 1 view .LVU918
	.loc 1 67 5 view .LVU919
	.loc 1 68 5 view .LVU920
	.loc 1 49 39 view .LVU921
.LVL66:
	.loc 1 49 15 view .LVU922
	.loc 1 50 5 view .LVU923
	.loc 1 51 5 view .LVU924
	.loc 1 52 5 view .LVU925
	.loc 1 53 5 view .LVU926
	.loc 1 54 5 view .LVU927
	.loc 1 55 5 view .LVU928
	.loc 1 56 5 view .LVU929
	.loc 1 57 5 view .LVU930
	.loc 1 58 5 view .LVU931
	.loc 1 59 5 view .LVU932
	.loc 1 60 5 view .LVU933
	.loc 1 61 5 view .LVU934
	.loc 1 56 30 is_stmt 0 view .LVU935
	movw	%ax, 684+filters(%rip)
	.loc 1 61 24 view .LVU936
	movw	%r8w, 692+filters(%rip)
	.loc 1 62 5 is_stmt 1 view .LVU937
	.loc 1 63 5 view .LVU938
	.loc 1 64 5 view .LVU939
	.loc 1 65 5 view .LVU940
	.loc 1 65 30 is_stmt 0 view .LVU941
	movw	%r9w, 710+filters(%rip)
	.loc 1 66 5 is_stmt 1 view .LVU942
	.loc 1 67 5 view .LVU943
	.loc 1 67 30 is_stmt 0 view .LVU944
	movw	%r10w, 714+filters(%rip)
	.loc 1 68 5 is_stmt 1 view .LVU945
	.loc 1 68 33 is_stmt 0 view .LVU946
	andb	$-2, 716+filters(%rip)
	.loc 1 49 39 is_stmt 1 view .LVU947
.LVL67:
	.loc 1 49 15 view .LVU948
	.loc 1 71 3 view .LVU949
	.loc 1 71 7 is_stmt 0 view .LVU950
	call	inet_pton@PLT
.LVL68:
	.loc 1 71 6 view .LVU951
	testl	%eax, %eax
	jle	.L138
	.loc 1 75 3 is_stmt 1 view .LVU952
	.loc 1 76 7 is_stmt 0 view .LVU953
	movq	8(%rsp), %r8
	.loc 1 75 40 view .LVU954
	movl	16(%rsp), %eax
	.loc 1 76 7 view .LVU955
	movl	$2, %edi
	leaq	.LC4(%rip), %rsi
	movq	%r8, %rdx
	.loc 1 75 40 view .LVU956
	movl	%eax, 720+filters(%rip)
	.loc 1 76 3 is_stmt 1 view .LVU957
	.loc 1 76 7 is_stmt 0 view .LVU958
	call	inet_pton@PLT
.LVL69:
	.loc 1 76 6 view .LVU959
	testl	%eax, %eax
	jle	.L138
	.loc 1 80 3 is_stmt 1 view .LVU960
	.loc 1 80 40 is_stmt 0 view .LVU961
	movl	20(%rsp), %eax
	.loc 1 90 39 view .LVU962
	movl	$50, %edx
	.loc 1 94 45 view .LVU963
	movl	$1234, %ecx
	.loc 1 96 45 view .LVU964
	movl	$319, %esi
	.loc 1 89 45 view .LVU965
	orb	$1, 738+filters(%rip)
	.loc 1 80 40 view .LVU966
	movl	%eax, 724+filters(%rip)
	.loc 1 81 3 is_stmt 1 view .LVU967
	.loc 1 82 3 view .LVU968
	.loc 1 81 41 is_stmt 0 view .LVU969
	movzwl	728+filters(%rip), %eax
	.loc 1 91 47 view .LVU970
	andb	$-2, 744+filters(%rip)
	.loc 1 81 41 view .LVU971
	andw	$254, %ax
	.loc 1 92 47 view .LVU972
	orb	$3, 756+filters(%rip)
	.loc 1 81 41 view .LVU973
	orl	$1, %eax
	.loc 1 95 51 view .LVU974
	orb	$1, 760+filters(%rip)
	.loc 1 81 41 view .LVU975
	movw	%ax, 728+filters(%rip)
	.loc 1 83 3 is_stmt 1 view .LVU976
	.loc 1 84 3 view .LVU977
	.loc 1 85 3 view .LVU978
	.loc 1 86 3 view .LVU979
	.loc 1 87 3 view .LVU980
	.loc 1 84 39 is_stmt 0 view .LVU981
	movl	731+filters(%rip), %eax
	.loc 1 97 48 view .LVU982
	andb	$-2, 764+filters(%rip)
	.loc 1 84 39 view .LVU983
	andl	$-33489408, %eax
	.loc 1 90 39 view .LVU984
	movw	%dx, 740+filters(%rip)
	.loc 1 84 39 view .LVU985
	orl	$22020392, %eax
	.loc 1 94 45 view .LVU986
	movw	%cx, 758+filters(%rip)
	.loc 1 84 39 view .LVU987
	movl	%eax, 731+filters(%rip)
	.loc 1 88 3 is_stmt 1 view .LVU988
	.loc 1 88 39 is_stmt 0 view .LVU989
	movl	$30, %eax
	movw	%ax, 736+filters(%rip)
	.loc 1 89 3 is_stmt 1 view .LVU990
	.loc 1 90 3 view .LVU991
	.loc 1 91 3 view .LVU992
	.loc 1 92 3 view .LVU993
	.loc 1 93 3 view .LVU994
	.loc 1 94 3 view .LVU995
	.loc 1 95 3 view .LVU996
	.loc 1 96 3 view .LVU997
	.loc 1 96 45 is_stmt 0 view .LVU998
	movw	%si, 762+filters(%rip)
	.loc 1 97 3 is_stmt 1 view .LVU999
	.loc 1 122 3 view .LVU1000
	.loc 1 122 14 is_stmt 0 view .LVU1001
	movl	$16, filter_num(%rip)
	.loc 1 123 1 view .LVU1002
	jmp	.L136
.LVL70:
	.p2align 4,,10
	.p2align 3
.L138:
	.loc 1 41 5 is_stmt 1 view .LVU1003
	leaq	.LC3(%rip), %rdi
	call	perror@PLT
.LVL71:
	.loc 1 42 5 view .LVU1004
	movl	$-1, %eax
.L136:
	.loc 1 123 1 is_stmt 0 view .LVU1005
	movq	24(%rsp), %rsi
	xorq	%fs:40, %rsi
	jne	.L141
	addq	$32, %rsp
	.cfi_remember_state
	.cfi_def_cfa_offset 16
	popq	%rbp
	.cfi_def_cfa_offset 8
	ret
.L141:
	.cfi_restore_state
	call	__stack_chk_fail@PLT
.LVL72:
	.cfi_endproc
.LFE86:
	.size	setup_rules, .-setup_rules
	.section	.rodata.str1.1
.LC5:
	.string	"u_firewall.c"
.LC6:
	.string	"%s:%s:%i: debug: "
.LC7:
	.string	"Start"
.LC8:
	.string	"nfc_run: %d"
	.section	.text.startup,"ax",@progbits
	.p2align 4
	.globl	main
	.type	main, @function
main:
.LFB87:
	.loc 1 125 12 is_stmt 1 view -0
	.cfi_startproc
	endbr64
	.loc 1 126 3 view .LVU1007
	.loc 1 128 3 view .LVU1008
	.loc 1 125 12 is_stmt 0 view .LVU1009
	pushq	%rbp
	.cfi_def_cfa_offset 16
	.cfi_offset 6, -16
	.loc 1 128 3 view .LVU1010
	xorl	%eax, %eax
	call	setup_rules
.LVL73:
	.loc 1 129 3 is_stmt 1 view .LVU1011
	.loc 1 129 3 view .LVU1012
.LBB62:
.LBI62:
	.loc 2 98 1 view .LVU1013
.LBB63:
	.loc 2 100 3 view .LVU1014
	.loc 2 100 10 is_stmt 0 view .LVU1015
	movq	stderr(%rip), %rdi
	xorl	%eax, %eax
	movl	$129, %r9d
	leaq	__func__.4489(%rip), %r8
	leaq	.LC5(%rip), %rcx
	movl	$1, %esi
	leaq	.LC6(%rip), %rdx
	call	__fprintf_chk@PLT
.LVL74:
	.loc 2 100 10 view .LVU1016
.LBE63:
.LBE62:
	.loc 1 129 3 is_stmt 1 view .LVU1017
.LBB64:
.LBI64:
	.loc 2 98 1 view .LVU1018
.LBB65:
	.loc 2 100 3 view .LVU1019
	.loc 2 100 10 is_stmt 0 view .LVU1020
	movl	$5, %edx
	movq	stderr(%rip), %rcx
	movl	$1, %esi
	leaq	.LC7(%rip), %rdi
	call	fwrite@PLT
.LVL75:
	.loc 2 100 10 view .LVU1021
.LBE65:
.LBE64:
	.loc 1 129 3 is_stmt 1 view .LVU1022
.LBB66:
.LBI66:
	.loc 2 98 1 view .LVU1023
.LBB67:
	.loc 2 100 3 view .LVU1024
	.loc 2 100 10 is_stmt 0 view .LVU1025
	movq	stderr(%rip), %rsi
	movl	$10, %edi
	call	fputc@PLT
.LVL76:
	.loc 2 100 10 view .LVU1026
.LBE67:
.LBE66:
	.loc 1 129 3 is_stmt 1 view .LVU1027
	.loc 1 130 3 view .LVU1028
	call	nfc_create_poll_thread@PLT
.LVL77:
	.loc 1 131 3 view .LVU1029
	.loc 1 131 9 is_stmt 0 view .LVU1030
	leaq	nfc_cb(%rip), %rdi
	call	nfc_run@PLT
.LVL78:
.LBB68:
.LBB69:
	.loc 2 100 10 view .LVU1031
	movl	$132, %r9d
	movq	stderr(%rip), %rdi
	leaq	__func__.4489(%rip), %r8
.LBE69:
.LBE68:
	.loc 1 131 9 view .LVU1032
	movl	%eax, %ebp
.LVL79:
	.loc 1 132 3 is_stmt 1 view .LVU1033
	.loc 1 132 3 view .LVU1034
.LBB71:
.LBI68:
	.loc 2 98 1 view .LVU1035
.LBB70:
	.loc 2 100 3 view .LVU1036
	.loc 2 100 10 is_stmt 0 view .LVU1037
	leaq	.LC5(%rip), %rcx
	leaq	.LC6(%rip), %rdx
	xorl	%eax, %eax
.LVL80:
	.loc 2 100 10 view .LVU1038
	movl	$1, %esi
	call	__fprintf_chk@PLT
.LVL81:
	.loc 2 100 10 view .LVU1039
.LBE70:
.LBE71:
	.loc 1 132 3 is_stmt 1 view .LVU1040
.LBB72:
.LBI72:
	.loc 2 98 1 view .LVU1041
.LBB73:
	.loc 2 100 3 view .LVU1042
	.loc 2 100 10 is_stmt 0 view .LVU1043
	movq	stderr(%rip), %rdi
	movl	%ebp, %ecx
	xorl	%eax, %eax
	leaq	.LC8(%rip), %rdx
	movl	$1, %esi
	call	__fprintf_chk@PLT
.LVL82:
	.loc 2 100 10 view .LVU1044
.LBE73:
.LBE72:
	.loc 1 132 3 is_stmt 1 view .LVU1045
.LBB74:
.LBI74:
	.loc 2 98 1 view .LVU1046
.LBB75:
	.loc 2 100 3 view .LVU1047
	.loc 2 100 10 is_stmt 0 view .LVU1048
	movq	stderr(%rip), %rsi
	movl	$10, %edi
	call	fputc@PLT
.LVL83:
	.loc 2 100 10 view .LVU1049
.LBE75:
.LBE74:
	.loc 1 132 3 is_stmt 1 view .LVU1050
	.loc 1 133 3 view .LVU1051
	.loc 1 134 1 is_stmt 0 view .LVU1052
	xorl	%eax, %eax
	popq	%rbp
	.cfi_def_cfa_offset 8
.LVL84:
	.loc 1 134 1 view .LVU1053
	ret
	.cfi_endproc
.LFE87:
	.size	main, .-main
	.section	.rodata
	.type	__func__.4489, @object
	.size	__func__.4489, 5
__func__.4489:
	.string	"main"
	.globl	tmp1
	.bss
	.align 4
	.type	tmp1, @object
	.size	tmp1, 4
tmp1:
	.zero	4
	.comm	filter_num,4,4
	.comm	filters,768,32
	.text
.Letext0:
	.file 3 "/usr/include/x86_64-linux-gnu/bits/types.h"
	.file 4 "/usr/lib/gcc/x86_64-linux-gnu/9/include/stddef.h"
	.file 5 "/usr/include/x86_64-linux-gnu/bits/stdint-uintn.h"
	.file 6 "/usr/include/asm-generic/int-ll64.h"
	.file 7 "/usr/include/linux/types.h"
	.file 8 "/usr/include/linux/if_ether.h"
	.file 9 "/usr/include/linux/ip.h"
	.file 10 "/usr/include/linux/in6.h"
	.file 11 "/usr/include/linux/ipv6.h"
	.file 12 "/usr/include/linux/udp.h"
	.file 13 "/usr/include/linux/tcp.h"
	.file 14 "/usr/include/linux/icmp.h"
	.file 15 "/usr/include/linux/icmpv6.h"
	.file 16 "/usr/include/netinet/in.h"
	.file 17 "/usr/include/x86_64-linux-gnu/bits/types/struct_FILE.h"
	.file 18 "/usr/include/x86_64-linux-gnu/bits/types/FILE.h"
	.file 19 "/usr/include/stdio.h"
	.file 20 "/usr/include/x86_64-linux-gnu/bits/sys_errlist.h"
	.file 21 "u_firewall.h"
	.file 22 "<built-in>"
	.file 23 "../../../../src/include/nf/user/nfc.h"
	.file 24 "/usr/include/arpa/inet.h"
	.file 25 "/usr/include/stdlib.h"
	.section	.note.GNU-stack,"",@progbits
	.section	.note.gnu.property,"a"
	.align 8
	.long	 1f - 0f
	.long	 4f - 1f
	.long	 5
0:
	.string	 "GNU"
1:
	.align 8
	.long	 0xc0000002
	.long	 3f - 2f
2:
	.long	 0x3
3:
	.align 8
4:
