	.file	"u_openssl_vpn.c"
	.text
.Ltext0:
	.section	.rodata.str1.1,"aMS",@progbits,1
.LC0:
	.string	"u_openssl_vpn.c"
.LC1:
	.string	"%s:%s:%i: error: "
.LC2:
	.string	"ENV_CIPHER_CTX_reset"
.LC3:
	.string	"ENV_EncryptInit_ex"
.LC4:
	.string	"EVP_EncryptUpdate failed"
.LC5:
	.string	"EVP_EncryptFinal_ex failed"
.LC6:
	.string	"Failed to get GCM tag"
.LC7:
	.string	"a"
	.text
	.p2align 4
	.globl	nfc_cb
	.type	nfc_cb, @function
nfc_cb:
.LVL0:
.LFB382:
	.file 1 "u_openssl_vpn.c"
	.loc 1 159 37 view -0
	.cfi_startproc
	.loc 1 159 37 is_stmt 0 view .LVU1
	endbr64
	pushq	%rbp
	.cfi_def_cfa_offset 16
	.cfi_offset 6, -16
	subq	$48, %rsp
	.cfi_def_cfa_offset 64
	.loc 1 159 37 view .LVU2
	// R5
	leaq	8(%rsp), %rbx
	cmp		%r15, %rbx
	jg		.+7
	jmp		trap
	movq	%rdi, 8(%rsp)
	// R5
	leaq	4(%rsp), %rbx
	cmp		%r15, %rbx
	jg		.+7
	jmp		trap
	movl	%esi, 4(%rsp)
	// R5
	RDFSBASE	%rbx
	add		$40, %rbx
	cmp		%r15, %rbx
	jg		.+7
	jmp		trap
	movq	%fs:40, %rax
	// R5
	leaq	40(%rsp), %rbx
	cmp		%r15, %rbx
	jg		.+7
	jmp		trap
	movq	%rax, 40(%rsp)
	xorl	%eax, %eax
	.loc 1 161 3 is_stmt 1 view .LVU3
	.loc 1 162 3 view .LVU4
	.loc 1 163 3 view .LVU5
.LVL1:
	.loc 1 164 3 view .LVU6
	.loc 1 165 3 view .LVU7
	.loc 1 166 3 view .LVU8
	.loc 1 167 3 view .LVU9
	.loc 1 168 3 view .LVU10
	.loc 1 169 3 view .LVU11
	.loc 1 171 3 view .LVU12
	.loc 1 171 10 is_stmt 0 view .LVU13
	// omit
	// R3
	leaq	12(%rdi), %rbx
	cmp		%r13, %rbx
	jg		.+7
	jmp		trap
	cmp		%r14, %rbx
	jl		.+7
	jmp		trap
	movzwl	12(%rdi), %eax
.LVL2:
	.file 2 "/usr/include/x86_64-linux-gnu/bits/byteswap.h"
	.loc 2 37 3 is_stmt 1 view .LVU14
	.loc 1 171 6 is_stmt 0 view .LVU15
	cmpw	$8, %ax
	je	.L2
	.loc 1 184 10 is_stmt 1 view .LVU16
.LVL3:
	.loc 2 37 3 view .LVU17
	.loc 1 184 13 is_stmt 0 view .LVU18
	cmpw	$-8826, %ax
	.loc 1 203 12 view .LVU19
	movl	%esi, %edx
	movq	%rdi, %rax
	.loc 1 184 13 view .LVU20
	jne	.L4
	.loc 1 185 5 is_stmt 1 view .LVU21
.LVL4:
	.loc 1 186 5 view .LVU22
	.loc 1 210 10 view .LVU23
	.loc 1 211 5 view .LVU24
	.loc 1 211 13 is_stmt 0 view .LVU25
	leaq	-54(%rdi), %rbp
.LVL5:
.L5:
	.loc 1 214 3 is_stmt 1 view .LVU26
	.loc 1 215 3 view .LVU27
	.loc 1 217 3 view .LVU28
.LBB230:
.LBI230:
	.file 3 "/usr/include/x86_64-linux-gnu/bits/string_fortified.h"
	.loc 3 31 1 view .LVU29
.LBB231:
	.loc 3 34 3 view .LVU30
	.loc 3 34 10 is_stmt 0 view .LVU31
	// R5
	leaq	new_eth_body(%rip), %rbx
	cmp		%r15, %rbx
	jg		.+7
	jmp		trap
	movq	new_eth_body(%rip), %rax
.LBE231:
.LBE230:
.LBB233:
.LBB234:
	.loc 1 54 18 view .LVU32
	pxor	%xmm1, %xmm1
.LBE234:
.LBE233:
.LBB237:
.LBB232:
	.loc 3 34 10 view .LVU33
	// R3
	leaq	0(%rbp), %rbx
	cmp		%r13, %rbx
	jg		.+7
	jmp		trap
	leaq	7(%rbp), %rbx
	cmp		%r14, %rbx
	jl		.+7
	jmp		trap
	movq	%rax, 0(%rbp)
	// R5
	leaq	8+new_eth_body(%rip), %rbx
	cmp		%r15, %rbx
	jg		.+7
	jmp		trap
	movl	8+new_eth_body(%rip), %eax
	// R3
	leaq	8(%rbp), %rbx
	cmp		%r13, %rbx
	jg		.+7
	jmp		trap
	leaq	11(%rbp), %rbx
	cmp		%r14, %rbx
	jl		.+7
	jmp		trap
	movl	%eax, 8(%rbp)
	// R5
	leaq	12+new_eth_body(%rip), %rbx
	cmp		%r15, %rbx
	jg		.+7
	jmp		trap
	movzwl	12+new_eth_body(%rip), %eax
	// R3
	leaq	12(%rbp), %rbx
	cmp		%r13, %rbx
	jg		.+7
	jmp		trap
	leaq	13(%rbp), %rbx
	cmp		%r14, %rbx
	jl		.+7
	jmp		trap
	movw	%ax, 12(%rbp)
.LVL6:
	.loc 3 34 10 view .LVU34
.LBE232:
.LBE237:
	.loc 1 219 3 is_stmt 1 view .LVU35
	.loc 1 219 29 is_stmt 0 view .LVU36
	// R5
	leaq	4(%rsp), %rbx
	cmp		%r15, %rbx
	jg		.+7
	jmp		trap
	movzwl	4(%rsp), %eax
.LBB238:
.LBB235:
	.loc 1 54 18 view .LVU37
	// R5
	leaq	16+new_ip_body(%rip), %rbx
	cmp		%r15, %rbx
	jg		.+7
	jmp		trap
	movzwl	16+new_ip_body(%rip), %edx
.LBE235:
.LBE238:
	.loc 1 219 29 view .LVU38
	addl	$20, %eax
	// R5
	leaq	2+new_ip_body(%rip), %rbx
	cmp		%r15, %rbx
	jg		.+7
	jmp		trap
	movw	%ax, 2+new_ip_body(%rip)
	.loc 1 220 3 is_stmt 1 view .LVU39
.LVL7:
.LBB239:
.LBI233:
	.loc 1 50 12 view .LVU40
.LBB236:
	.loc 1 53 11 view .LVU41
	.loc 1 54 9 view .LVU42
	.loc 1 54 18 is_stmt 0 view .LVU43
	// R5
	leaq	new_ip_body(%rip), %rbx
	cmp		%r15, %rbx
	jg		.+7
	jmp		trap
	movdqu	new_ip_body(%rip), %xmm0
	// R5
	leaq	18+new_ip_body(%rip), %rbx
	cmp		%r15, %rbx
	jg		.+7
	jmp		trap
	movzwl	18+new_ip_body(%rip), %eax
	movdqa	%xmm0, %xmm2
	punpcklwd	%xmm1, %xmm0
	punpckhwd	%xmm1, %xmm2
	.loc 1 54 15 view .LVU44
	addl	%eax, %edx
	paddd	%xmm2, %xmm0
	.loc 1 55 9 is_stmt 1 view .LVU45
	.loc 1 53 11 view .LVU46
	movdqa	%xmm0, %xmm1
	psrldq	$8, %xmm1
	paddd	%xmm1, %xmm0
	movdqa	%xmm0, %xmm1
	psrldq	$4, %xmm1
.LVL8:
	.loc 1 54 9 view .LVU47
	.loc 1 55 9 view .LVU48
	.loc 1 53 11 view .LVU49
	.loc 1 54 9 view .LVU50
	.loc 1 54 15 is_stmt 0 view .LVU51
	paddd	%xmm1, %xmm0
.LVL9:
	.loc 1 54 15 view .LVU52
	movd	%xmm0, %eax
	addl	%eax, %edx
.LVL10:
	.loc 1 55 9 is_stmt 1 view .LVU53
	.loc 1 53 11 view .LVU54
	.loc 1 58 5 view .LVU55
	.loc 1 62 5 view .LVU56
	.loc 1 62 20 is_stmt 0 view .LVU57
	movl	%edx, %eax
	.loc 1 62 36 view .LVU58
	movzwl	%dx, %edx
.LVL11:
	.loc 1 62 20 view .LVU59
	shrl	$16, %eax
.LVL12:
	.loc 1 62 11 view .LVU60
	addl	%edx, %eax
.LVL13:
	.loc 1 63 5 is_stmt 1 view .LVU61
	.loc 1 63 21 is_stmt 0 view .LVU62
	movl	%eax, %edx
	shrl	$16, %edx
.LVL14:
	.loc 1 65 5 is_stmt 1 view .LVU63
	.loc 1 63 11 is_stmt 0 view .LVU64
	addl	%edx, %eax
	.loc 1 65 12 view .LVU65
	notl	%eax
	// R5
	leaq	10+new_ip_body(%rip), %rbx
	cmp		%r15, %rbx
	jg		.+7
	jmp		trap
	movw	%ax, 10+new_ip_body(%rip)
.LBE236:
.LBE239:
	.loc 1 221 3 is_stmt 1 view .LVU66
.LVL15:
.LBB240:
.LBI240:
	.loc 3 31 1 view .LVU67
.LBB241:
	.loc 3 34 3 view .LVU68
	.loc 3 34 10 is_stmt 0 view .LVU69
	// R5
	leaq	new_ip_body(%rip), %rbx
	cmp		%r15, %rbx
	jg		.+7
	jmp		trap
	movdqu	new_ip_body(%rip), %xmm3
	// R3
	leaq	14(%rbp), %rbx
	cmp		%r13, %rbx
	jg		.+7
	jmp		trap
	leaq	29(%rbp), %rbx
	cmp		%r14, %rbx
	jl		.+7
	jmp		trap
	movups	%xmm3, 14(%rbp)
	// R5
	leaq	16+new_ip_body(%rip), %rbx
	cmp		%r15, %rbx
	jg		.+7
	jmp		trap
	movl	16+new_ip_body(%rip), %eax
.LBE241:
.LBE240:
	.loc 1 226 7 view .LVU70
	// R5
	leaq	ctx(%rip), %rbx
	cmp		%r15, %rbx
	jg		.+7
	jmp		trap
	movq	ctx(%rip), %rdi
.LVL16:
.LBB243:
.LBB242:
	.loc 3 34 10 view .LVU71
	// R3
	leaq	30(%rbp), %rbx
	cmp		%r13, %rbx
	jg		.+7
	jmp		trap
	leaq	33(%rbp), %rbx
	cmp		%r14, %rbx
	jl		.+7
	jmp		trap
	movl	%eax, 30(%rbp)
.LVL17:
	.loc 3 34 10 view .LVU72
.LBE242:
.LBE243:
	.loc 1 224 3 is_stmt 1 view .LVU73
	.loc 1 226 3 view .LVU74
	.loc 1 226 7 is_stmt 0 view .LVU75
	// arg 1
	cmp		%r15, %rdi
	jg		.+7
	jmp		trap
	call	EVP_CIPHER_CTX_reset@PLT
.LVL18:
	.loc 1 226 6 view .LVU76
	cmpl	$1, %eax
	je	.L6
	.loc 1 227 5 is_stmt 1 view .LVU77
	.loc 1 227 5 view .LVU78
.LVL19:
.LBB244:
.LBI244:
	.file 4 "/usr/include/x86_64-linux-gnu/bits/stdio2.h"
	.loc 4 98 1 view .LVU79
.LBB245:
	.loc 4 100 3 view .LVU80
	.loc 4 100 10 is_stmt 0 view .LVU81
	// R5
	leaq	stderr(%rip), %rbx
	cmp		%r15, %rbx
	jg		.+7
	jmp		trap
	movq	stderr(%rip), %rdi
	movl	$227, %r9d
	xorl	%eax, %eax
	leaq	__func__.11046(%rip), %r8
	leaq	.LC0(%rip), %rcx
	leaq	.LC1(%rip), %rdx
	movl	$1, %esi
	call	__fprintf_chk@PLT
.LVL20:
	.loc 4 100 10 view .LVU82
.LBE245:
.LBE244:
	.loc 1 227 5 is_stmt 1 view .LVU83
.LBB246:
.LBI246:
	.loc 4 98 1 view .LVU84
.LBB247:
	.loc 4 100 3 view .LVU85
	.loc 4 100 10 is_stmt 0 view .LVU86
	movl	$1, %esi
	movl	$20, %edx
	// R5
	leaq	stderr(%rip), %rbx
	cmp		%r15, %rbx
	jg		.+7
	jmp		trap
	movq	stderr(%rip), %rcx
	leaq	.LC2(%rip), %rdi
	call	fwrite@PLT
.LVL21:
	.loc 4 100 10 view .LVU87
.LBE247:
.LBE246:
	.loc 1 227 5 is_stmt 1 view .LVU88
.LBB248:
.LBI248:
	.loc 4 98 1 view .LVU89
.LBB249:
	.loc 4 100 3 view .LVU90
	.loc 4 100 10 is_stmt 0 view .LVU91
	// R5
	leaq	stderr(%rip), %rbx
	cmp		%r15, %rbx
	jg		.+7
	jmp		trap
	movq	stderr(%rip), %rsi
	movl	$10, %edi
	call	fputc@PLT
.LVL22:
.L6:
	.loc 4 100 10 view .LVU92
.LBE249:
.LBE248:
	.loc 1 227 5 is_stmt 1 discriminator 1 view .LVU93
	.loc 1 229 3 discriminator 1 view .LVU94
	.loc 1 229 7 is_stmt 0 discriminator 1 view .LVU95
	// R5
	leaq	iv(%rip), %rbx
	cmp		%r15, %rbx
	jg		.+7
	jmp		trap
	movq	iv(%rip), %r8
	// R5
	leaq	key(%rip), %rbx
	cmp		%r15, %rbx
	jg		.+7
	jmp		trap
	movq	key(%rip), %rcx
	// R5
	leaq	24(%rsp), %rbx
	cmp		%r15, %rbx
	jg		.+7
	jmp		trap
	movq	%r8, 24(%rsp)
	// R5
	leaq	16(%rsp), %rbx
	cmp		%r15, %rbx
	jg		.+7
	jmp		trap
	movq	%rcx, 16(%rsp)
	call	EVP_aes_256_gcm@PLT
.LVL23:
	// R5
	leaq	24(%rsp), %rbx
	cmp		%r15, %rbx
	jg		.+7
	jmp		trap
	movq	24(%rsp), %r8
	// R5
	leaq	16(%rsp), %rbx
	cmp		%r15, %rbx
	jg		.+7
	jmp		trap
	movq	16(%rsp), %rcx
	xorl	%edx, %edx
	// R5
	leaq	ctx(%rip), %rbx
	cmp		%r15, %rbx
	jg		.+7
	jmp		trap
	movq	ctx(%rip), %rdi
	movq	%rax, %rsi
	// arg 1
	cmp		%r15, %rdi
	jg		.+7
	jmp		trap
	// arg 2
	cmp		%r15, %rsi
	jg		.+7
	jmp		trap
	// arg 4
	cmp		%r15, %rcx
	jg		.+7
	jmp		trap
	// arg 5
	cmp		%r15, %r8
	jg		.+7
	jmp		trap
	call	EVP_EncryptInit_ex@PLT
.LVL24:
	.loc 1 229 6 discriminator 1 view .LVU96
	cmpl	$1, %eax
	je	.L7
	.loc 1 230 5 is_stmt 1 view .LVU97
	.loc 1 230 5 view .LVU98
.LVL25:
.LBB250:
.LBI250:
	.loc 4 98 1 view .LVU99
.LBB251:
	.loc 4 100 3 view .LVU100
	.loc 4 100 10 is_stmt 0 view .LVU101
	// R5
	leaq	stderr(%rip), %rbx
	cmp		%r15, %rbx
	jg		.+7
	jmp		trap
	movq	stderr(%rip), %rdi
	movl	$230, %r9d
	xorl	%eax, %eax
	leaq	__func__.11046(%rip), %r8
	leaq	.LC0(%rip), %rcx
	leaq	.LC1(%rip), %rdx
	movl	$1, %esi
	call	__fprintf_chk@PLT
.LVL26:
	.loc 4 100 10 view .LVU102
.LBE251:
.LBE250:
	.loc 1 230 5 is_stmt 1 view .LVU103
.LBB252:
.LBI252:
	.loc 4 98 1 view .LVU104
.LBB253:
	.loc 4 100 3 view .LVU105
	.loc 4 100 10 is_stmt 0 view .LVU106
	movl	$1, %esi
	movl	$18, %edx
	// R5
	leaq	stderr(%rip), %rbx
	cmp		%r15, %rbx
	jg		.+7
	jmp		trap
	movq	stderr(%rip), %rcx
	leaq	.LC3(%rip), %rdi
	call	fwrite@PLT
.LVL27:
	.loc 4 100 10 view .LVU107
.LBE253:
.LBE252:
	.loc 1 230 5 is_stmt 1 view .LVU108
.LBB254:
.LBI254:
	.loc 4 98 1 view .LVU109
.LBB255:
	.loc 4 100 3 view .LVU110
	.loc 4 100 10 is_stmt 0 view .LVU111
	// R5
	leaq	stderr(%rip), %rbx
	cmp		%r15, %rbx
	jg		.+7
	jmp		trap
	movq	stderr(%rip), %rsi
	movl	$10, %edi
	call	fputc@PLT
.LVL28:
.L7:
	.loc 4 100 10 view .LVU112
.LBE255:
.LBE254:
	.loc 1 230 5 is_stmt 1 discriminator 1 view .LVU113
	.loc 1 232 3 discriminator 1 view .LVU114
	.loc 1 232 7 is_stmt 0 discriminator 1 view .LVU115
	// R5
	leaq	8(%rsp), %rbx
	cmp		%r15, %rbx
	jg		.+7
	jmp		trap
	movq	8(%rsp), %rcx
	// R5
	leaq	4(%rsp), %rbx
	cmp		%r15, %rbx
	jg		.+7
	jmp		trap
	movl	4(%rsp), %r8d
	// R5
	leaq	32(%rsp), %rdx
	// R5
	leaq	ctx(%rip), %rbx
	cmp		%r15, %rbx
	jg		.+7
	jmp		trap
	movq	ctx(%rip), %rdi
	movq	%rcx, %rsi
	// arg 1
	cmp		%r15, %rdi
	jg		.+7
	jmp		trap
	// arg 2
	movq	%rsi, %rbx
	cmp		%r15, %rbx
	jg		.+30
	cmp		%r13, %rbx
	jl		.+15
	addq	%r8, %rbx
	cmp		%r14, %rbx
	jl		.+17
	jmp		trap
	cmp		%r12, %rbx
	jl		.+7
	jmp		trap
	// arg 3
	cmp		%r15, %rdx
	jg		.+7
	jmp		trap
	// arg 4
	movq	%rcx, %rbx
	cmp		%r15, %rbx
	jg		.+30
	cmp		%r13, %rbx
	jl		.+15
	addq	%r8, %rbx
	cmp		%r14, %rbx
	jl		.+17
	jmp		trap
	cmp		%r12, %rbx
	jl		.+7
	jmp		trap
	call	EVP_EncryptUpdate@PLT
.LVL29:
	.loc 1 232 6 discriminator 1 view .LVU116
	cmpl	$1, %eax
	je	.L8
	.loc 1 233 5 is_stmt 1 view .LVU117
	.loc 1 233 5 view .LVU118
.LVL30:
.LBB256:
.LBI256:
	.loc 4 98 1 view .LVU119
.LBB257:
	.loc 4 100 3 view .LVU120
	.loc 4 100 10 is_stmt 0 view .LVU121
	// R5
	leaq	stderr(%rip), %rbx
	cmp		%r15, %rbx
	jg		.+7
	jmp		trap
	movq	stderr(%rip), %rdi
	movl	$233, %r9d
	xorl	%eax, %eax
	leaq	__func__.11046(%rip), %r8
	leaq	.LC0(%rip), %rcx
	leaq	.LC1(%rip), %rdx
	movl	$1, %esi
	call	__fprintf_chk@PLT
.LVL31:
	.loc 4 100 10 view .LVU122
.LBE257:
.LBE256:
	.loc 1 233 5 is_stmt 1 view .LVU123
.LBB258:
.LBI258:
	.loc 4 98 1 view .LVU124
.LBB259:
	.loc 4 100 3 view .LVU125
	.loc 4 100 10 is_stmt 0 view .LVU126
	movl	$1, %esi
	movl	$24, %edx
	// R5
	leaq	stderr(%rip), %rbx
	cmp		%r15, %rbx
	jg		.+7
	jmp		trap
	movq	stderr(%rip), %rcx
	leaq	.LC4(%rip), %rdi
	call	fwrite@PLT
.LVL32:
	.loc 4 100 10 view .LVU127
.LBE259:
.LBE258:
	.loc 1 233 5 is_stmt 1 view .LVU128
.LBB260:
.LBI260:
	.loc 4 98 1 view .LVU129
.LBB261:
	.loc 4 100 3 view .LVU130
	.loc 4 100 10 is_stmt 0 view .LVU131
	// R5
	leaq	stderr(%rip), %rbx
	cmp		%r15, %rbx
	jg		.+7
	jmp		trap
	movq	stderr(%rip), %rsi
	movl	$10, %edi
	call	fputc@PLT
.LVL33:
.L8:
	.loc 4 100 10 view .LVU132
.LBE261:
.LBE260:
	.loc 1 233 5 is_stmt 1 discriminator 1 view .LVU133
	.loc 1 235 3 discriminator 1 view .LVU134
	.loc 1 235 7 is_stmt 0 discriminator 1 view .LVU135
	// R5
	leaq	ctx(%rip), %rbx
	cmp		%r15, %rbx
	jg		.+7
	jmp		trap
	movq	ctx(%rip), %rdi
	// R5
	leaq	32(%rsp), %rbx
	cmp		%r15, %rbx
	jg		.+7
	jmp		trap
	movslq	32(%rsp), %rsi
	leaq	36(%rsp), %rdx
	.loc 1 235 36 discriminator 1 view .LVU136
	// R5
	leaq	8(%rsp), %rbx
	cmp		%r15, %rbx
	jg		.+7
	jmp		trap
	addq	8(%rsp), %rsi
	.loc 1 235 7 discriminator 1 view .LVU137
	// arg 1
	cmp		%r15, %rdi
	jg		.+7
	jmp		trap
	// arg 2
	movq	%rsi, %rbx
	cmp		%r15, %rbx
	jg		.+31
	cmp		%r13, %rbx
	jl		.+16
	addq	$16, %rbx
	cmp		%r14, %rbx
	jl		.+17
	jmp		trap
	cmp		%r12, %rbx
	jl		.+7
	jmp		trap
	// arg 3
	cmp		%r15, %rdx
	jg		.+7
	jmp		trap
	call	EVP_EncryptFinal_ex@PLT
.LVL34:
	.loc 1 235 6 discriminator 1 view .LVU138
	cmpl	$1, %eax
	je	.L9
	.loc 1 236 5 is_stmt 1 view .LVU139
	.loc 1 236 5 view .LVU140
.LVL35:
.LBB262:
.LBI262:
	.loc 4 98 1 view .LVU141
.LBB263:
	.loc 4 100 3 view .LVU142
	.loc 4 100 10 is_stmt 0 view .LVU143
	// R5
	leaq	stderr(%rip), %rbx
	cmp		%r15, %rbx
	jg		.+7
	jmp		trap
	movq	stderr(%rip), %rdi
	movl	$236, %r9d
	xorl	%eax, %eax
	leaq	__func__.11046(%rip), %r8
	leaq	.LC0(%rip), %rcx
	leaq	.LC1(%rip), %rdx
	movl	$1, %esi
	call	__fprintf_chk@PLT
.LVL36:
	.loc 4 100 10 view .LVU144
.LBE263:
.LBE262:
	.loc 1 236 5 is_stmt 1 view .LVU145
.LBB264:
.LBI264:
	.loc 4 98 1 view .LVU146
.LBB265:
	.loc 4 100 3 view .LVU147
	.loc 4 100 10 is_stmt 0 view .LVU148
	movl	$1, %esi
	movl	$26, %edx
	// R5
	leaq	stderr(%rip), %rbx
	cmp		%r15, %rbx
	jg		.+7
	jmp		trap
	movq	stderr(%rip), %rcx
	leaq	.LC5(%rip), %rdi
	call	fwrite@PLT
.LVL37:
	.loc 4 100 10 view .LVU149
.LBE265:
.LBE264:
	.loc 1 236 5 is_stmt 1 view .LVU150
.LBB266:
.LBI266:
	.loc 4 98 1 view .LVU151
.LBB267:
	.loc 4 100 3 view .LVU152
	.loc 4 100 10 is_stmt 0 view .LVU153
	// R5
	leaq	stderr(%rip), %rbx
	cmp		%r15, %rbx
	jg		.+7
	jmp		trap
	movq	stderr(%rip), %rsi
	movl	$10, %edi
	call	fputc@PLT
.LVL38:
.L9:
	.loc 4 100 10 view .LVU154
.LBE267:
.LBE266:
	.loc 1 236 5 is_stmt 1 discriminator 1 view .LVU155
	.loc 1 238 3 discriminator 1 view .LVU156
	.loc 1 238 7 is_stmt 0 discriminator 1 view .LVU157
	// R5
	leaq	tag_len(%rip), %rbx
	cmp		%r15, %rbx
	jg		.+7
	jmp		trap
	movl	tag_len(%rip), %edx
	// R5
	leaq	ctx(%rip), %rbx
	cmp		%r15, %rbx
	jg		.+7
	jmp		trap
	movq	ctx(%rip), %rdi
	movl	$16, %esi
	leaq	tag(%rip), %rcx
	// arg 1
	cmp		%r15, %rdi
	jg		.+7
	jmp		trap
	// arg 4
	cmp		%r15, %rcx
	jg		.+7
	jmp		trap
	call	EVP_CIPHER_CTX_ctrl@PLT
.LVL39:
	.loc 1 238 6 discriminator 1 view .LVU158
	cmpl	$1, %eax
	je	.L10
	.loc 1 239 5 is_stmt 1 view .LVU159
	.loc 1 239 5 view .LVU160
.LVL40:
.LBB268:
.LBI268:
	.loc 4 98 1 view .LVU161
.LBB269:
	.loc 4 100 3 view .LVU162
	.loc 4 100 10 is_stmt 0 view .LVU163
	// R5
	leaq	stderr(%rip), %rbx
	cmp		%r15, %rbx
	jg		.+7
	jmp		trap
	movq	stderr(%rip), %rdi
	movl	$239, %r9d
	xorl	%eax, %eax
	leaq	__func__.11046(%rip), %r8
	leaq	.LC0(%rip), %rcx
	leaq	.LC1(%rip), %rdx
	movl	$1, %esi
	call	__fprintf_chk@PLT
.LVL41:
	.loc 4 100 10 view .LVU164
.LBE269:
.LBE268:
	.loc 1 239 5 is_stmt 1 view .LVU165
.LBB270:
.LBI270:
	.loc 4 98 1 view .LVU166
.LBB271:
	.loc 4 100 3 view .LVU167
	.loc 4 100 10 is_stmt 0 view .LVU168
	movl	$1, %esi
	movl	$21, %edx
	// R5
	leaq	stderr(%rip), %rbx
	cmp		%r15, %rbx
	jg		.+7
	jmp		trap
	movq	stderr(%rip), %rcx
	leaq	.LC6(%rip), %rdi
	call	fwrite@PLT
.LVL42:
	.loc 4 100 10 view .LVU169
.LBE271:
.LBE270:
	.loc 1 239 5 is_stmt 1 view .LVU170
.LBB272:
.LBI272:
	.loc 4 98 1 view .LVU171
.LBB273:
	.loc 4 100 3 view .LVU172
	.loc 4 100 10 is_stmt 0 view .LVU173
	// R5
	leaq	stderr(%rip), %rbx
	cmp		%r15, %rbx
	jg		.+7
	jmp		trap
	movq	stderr(%rip), %rsi
	movl	$10, %edi
	call	fputc@PLT
.LVL43:
.L10:
	.loc 4 100 10 view .LVU174
.LBE273:
.LBE272:
	.loc 1 239 5 is_stmt 1 discriminator 1 view .LVU175
	.loc 1 243 3 discriminator 1 view .LVU176
	.loc 1 244 3 discriminator 1 view .LVU177
	.loc 1 246 3 discriminator 1 view .LVU178
	.loc 1 244 25 is_stmt 0 discriminator 1 view .LVU179
	// R5
	leaq	36(%rsp), %rbx
	cmp		%r15, %rbx
	jg		.+7
	jmp		trap
	movl	36(%rsp), %edx
	// R5
	leaq	32(%rsp), %rbx
	cmp		%r15, %rbx
	jg		.+7
	jmp		trap
	addl	32(%rsp), %edx
	.loc 1 244 61 discriminator 1 view .LVU180
	leal	34(%rdx), %eax
	// R5
	leaq	4(%rsp), %rbx
	cmp		%r15, %rbx
	jg		.+7
	jmp		trap
	movl	%eax, 4(%rsp)
.LVL44:
	.loc 1 246 3 discriminator 1 view .LVU181
#APP
# 246 "u_openssl_vpn.c" 1
	# BEGIN_INTERESTING_SECTION
# 0 "" 2
	.loc 1 247 3 is_stmt 1 discriminator 1 view .LVU182
.LVL45:
#NO_APP
.LBB274:
.LBI274:
	.loc 4 105 1 discriminator 1 view .LVU183
.LBB275:
	.loc 4 107 3 discriminator 1 view .LVU184
	.loc 4 107 10 is_stmt 0 discriminator 1 view .LVU185
	leaq	.LC7(%rip), %rdi
	call	puts@PLT
.LVL46:
	.loc 4 107 10 discriminator 1 view .LVU186
.LBE275:
.LBE274:
	.loc 1 248 3 is_stmt 1 discriminator 1 view .LVU187
#APP
# 248 "u_openssl_vpn.c" 1
	# END_INTERESTING_SECTION
# 0 "" 2
	.loc 1 250 3 discriminator 1 view .LVU188
	.loc 1 250 10 is_stmt 0 discriminator 1 view .LVU189
#NO_APP
	// omit?
	// R5
	leaq	4(%rsp), %rbx
	cmp		%r15, %rbx
	jg		.+7
	jmp		trap
	movl	4(%rsp), %edx
	movq	%rbp, %rax
.LVL47:
.L4:
	.loc 1 251 1 view .LVU190
	// R5
	leaq	40(%rsp), %rbx
	cmp		%r15, %rbx
	jg		.+7
	jmp		trap
	movq	40(%rsp), %rdi
	RDFSBASE	%rbx
	add		$40, %rbx
	cmp		%r15, %rbx
	jg		.+7
	jmp		trap
	xorq	%fs:40, %rdi
	jne	.L29
	addq	$48, %rsp
	.cfi_remember_state
	.cfi_def_cfa_offset 16
	popq	%rbp
	.cfi_def_cfa_offset 8
	ret
.LVL48:
	.p2align 4,,10
	.p2align 3
.L2:
	.cfi_restore_state
	.loc 1 172 5 is_stmt 1 view .LVU191
	.loc 1 173 5 view .LVU192
	.loc 1 207 3 view .LVU193
	.loc 1 208 3 view .LVU194
	.loc 1 209 5 view .LVU195
	.loc 1 209 13 is_stmt 0 view .LVU196
	leaq	-34(%rdi), %rbp
.LVL49:
	.loc 1 209 13 view .LVU197
	jmp	.L5
.LVL50:
.L29:
	.loc 1 251 1 view .LVU198
	call	__stack_chk_fail@PLT
.LVL51:
	.cfi_endproc
.LFE382:
	.size	nfc_cb, .-nfc_cb
	.section	.rodata.str1.1
.LC8:
	.string	"%x:%x:%x:%x:%x:%x"
	.text
	.p2align 4
	.globl	convert_mac
	.type	convert_mac, @function
convert_mac:
.LVL52:
.LFB376:
	.loc 1 31 67 is_stmt 1 view -0
	.cfi_startproc
	.loc 1 31 67 is_stmt 0 view .LVU200
	endbr64
	pushq	%rbp
	.cfi_def_cfa_offset 16
	.cfi_offset 6, -16
	movq	%rsi, %rbp
	.loc 1 33 14 view .LVU201
	leaq	.LC8(%rip), %rsi
.LVL53:
	.loc 1 31 67 view .LVU202
	subq	$32, %rsp
	.cfi_def_cfa_offset 48
	.loc 1 31 67 view .LVU203
	movq	%fs:40, %rax
	movq	%rax, 24(%rsp)
	xorl	%eax, %eax
	.loc 1 32 5 is_stmt 1 view .LVU204
	.loc 1 33 5 view .LVU205
	.loc 1 33 14 is_stmt 0 view .LVU206
	leaq	20(%rsp), %rax
	movq	%rsp, %rdx
	leaq	4(%rsp), %rcx
	pushq	%rax
	.cfi_def_cfa_offset 56
	leaq	24(%rsp), %rax
	pushq	%rax
	.cfi_def_cfa_offset 64
	xorl	%eax, %eax
	leaq	28(%rsp), %r9
	leaq	24(%rsp), %r8
	call	__isoc99_sscanf@PLT
.LVL54:
	.loc 1 33 8 view .LVU207
	popq	%rdx
	.cfi_def_cfa_offset 56
	popq	%rcx
	.cfi_def_cfa_offset 48
	cmpl	$6, %eax
	jne	.L33
.LVL55:
.LBB277:
	.loc 1 35 13 is_stmt 1 view .LVU208
	.loc 1 35 28 is_stmt 0 view .LVU209
	movl	(%rsp), %eax
	movb	%al, 0(%rbp)
	.loc 1 34 32 is_stmt 1 view .LVU210
.LVL56:
	.loc 1 34 25 view .LVU211
	.loc 1 35 13 view .LVU212
	.loc 1 35 28 is_stmt 0 view .LVU213
	movl	4(%rsp), %eax
	movb	%al, 1(%rbp)
	.loc 1 34 32 is_stmt 1 view .LVU214
.LVL57:
	.loc 1 34 25 view .LVU215
	.loc 1 35 13 view .LVU216
	.loc 1 35 28 is_stmt 0 view .LVU217
	movl	8(%rsp), %eax
	movb	%al, 2(%rbp)
	.loc 1 34 32 is_stmt 1 view .LVU218
.LVL58:
	.loc 1 34 25 view .LVU219
	.loc 1 35 13 view .LVU220
	.loc 1 35 28 is_stmt 0 view .LVU221
	movl	12(%rsp), %eax
	movb	%al, 3(%rbp)
	.loc 1 34 32 is_stmt 1 view .LVU222
.LVL59:
	.loc 1 34 25 view .LVU223
	.loc 1 35 13 view .LVU224
	.loc 1 35 28 is_stmt 0 view .LVU225
	movl	16(%rsp), %eax
	movb	%al, 4(%rbp)
	.loc 1 34 32 is_stmt 1 view .LVU226
.LVL60:
	.loc 1 34 25 view .LVU227
	.loc 1 35 13 view .LVU228
	.loc 1 35 28 is_stmt 0 view .LVU229
	movl	20(%rsp), %eax
	movb	%al, 5(%rbp)
	.loc 1 34 32 is_stmt 1 view .LVU230
.LVL61:
	.loc 1 34 25 view .LVU231
.LBE277:
	.loc 1 37 16 is_stmt 0 view .LVU232
	xorl	%eax, %eax
.LVL62:
.L30:
	.loc 1 40 1 view .LVU233
	movq	24(%rsp), %rdx
	xorq	%fs:40, %rdx
	jne	.L35
	addq	$32, %rsp
	.cfi_remember_state
	.cfi_def_cfa_offset 16
	popq	%rbp
	.cfi_def_cfa_offset 8
.LVL63:
	.loc 1 40 1 view .LVU234
	ret
.LVL64:
	.p2align 4,,10
	.p2align 3
.L33:
	.cfi_restore_state
	.loc 1 39 12 view .LVU235
	movl	$-1, %eax
	jmp	.L30
.L35:
	.loc 1 40 1 view .LVU236
	call	__stack_chk_fail@PLT
.LVL65:
	.cfi_endproc
.LFE376:
	.size	convert_mac, .-convert_mac
	.p2align 4
	.globl	convert_ip
	.type	convert_ip, @function
convert_ip:
.LVL66:
.LFB377:
	.loc 1 42 44 is_stmt 1 view -0
	.cfi_startproc
	.loc 1 42 44 is_stmt 0 view .LVU238
	endbr64
	subq	$24, %rsp
	.cfi_def_cfa_offset 32
	.loc 1 42 44 view .LVU239
	movq	%rdi, %rsi
	.loc 1 44 9 view .LVU240
	movl	$2, %edi
.LVL67:
	.loc 1 42 44 view .LVU241
	movq	%fs:40, %rax
	movq	%rax, 8(%rsp)
	xorl	%eax, %eax
	.loc 1 43 5 is_stmt 1 view .LVU242
	.loc 1 44 5 view .LVU243
	.loc 1 44 9 is_stmt 0 view .LVU244
	leaq	4(%rsp), %rdx
	call	inet_pton@PLT
.LVL68:
	.loc 1 47 16 view .LVU245
	cmpl	$1, %eax
	movl	$0, %eax
	cmove	4(%rsp), %eax
	.loc 1 48 1 view .LVU246
	movq	8(%rsp), %rcx
	xorq	%fs:40, %rcx
	jne	.L41
	addq	$24, %rsp
	.cfi_remember_state
	.cfi_def_cfa_offset 8
	ret
.L41:
	.cfi_restore_state
	call	__stack_chk_fail@PLT
.LVL69:
	.cfi_endproc
.LFE377:
	.size	convert_ip, .-convert_ip
	.section	.rodata.str1.1
.LC9:
	.string	"80:61:5f:06:94:c4"
.LC10:
	.string	"cannot set source_mac"
.LC11:
	.string	"00:25:90:7e:45:da"
.LC12:
	.string	"10.0.0.109"
.LC13:
	.string	"cannot set source ip"
.LC14:
	.string	"10.0.1.201"
.LC15:
	.string	"cannot set dest ip"
.LC16:
	.string	"0123456789abcdef"
.LC17:
	.string	"Failed to allocate IV"
.LC18:
	.string	"Failed to generate random IV"
	.section	.rodata.str1.8,"aMS",@progbits,1
	.align 8
.LC19:
	.string	"Failed to create ENV_CIPHER_CTX"
	.section	.rodata.str1.1
.LC20:
	.string	"EVP_EncrptInit_ex failed"
	.section	.rodata.str1.8
	.align 8
.LC21:
	.string	"Failed to set IV length for GCM"
	.align 8
.LC22:
	.string	"Failed to initialize key and IV for GCM"
	.text
	.p2align 4
	.globl	setup_new_hdr
	.type	setup_new_hdr, @function
setup_new_hdr:
.LFB379:
	.loc 1 69 1 is_stmt 1 view -0
	.cfi_startproc
	endbr64
	pushq	%rbp
	.cfi_def_cfa_offset 16
	.cfi_offset 6, -16
.LBB348:
.LBB349:
	.loc 1 33 14 is_stmt 0 view .LVU248
	leaq	.LC9(%rip), %rdi
	leaq	.LC8(%rip), %rsi
.LBE349:
.LBE348:
	.loc 1 69 1 view .LVU249
	subq	$96, %rsp
	.cfi_def_cfa_offset 112
	.loc 1 69 1 view .LVU250
	movq	%fs:40, %rax
	movq	%rax, 88(%rsp)
	xorl	%eax, %eax
	.loc 1 71 3 is_stmt 1 view .LVU251
.LVL70:
	.loc 1 72 3 view .LVU252
	.loc 1 77 3 view .LVU253
	.loc 1 78 3 view .LVU254
	.loc 1 80 3 view .LVU255
.LBB356:
.LBI348:
	.loc 1 31 5 view .LVU256
.LBB353:
	.loc 1 32 5 view .LVU257
	.loc 1 33 5 view .LVU258
	.loc 1 33 14 is_stmt 0 view .LVU259
	leaq	84(%rsp), %r10
	leaq	76(%rsp), %r9
	leaq	68(%rsp), %rcx
	leaq	72(%rsp), %r8
	leaq	64(%rsp), %rbp
	pushq	%r10
	.cfi_def_cfa_offset 120
	movq	%rbp, %rdx
	leaq	88(%rsp), %r11
	movq	%r10, 48(%rsp)
	pushq	%r11
	.cfi_def_cfa_offset 128
	movq	%r11, 48(%rsp)
	movq	%r9, 40(%rsp)
	movq	%rcx, 24(%rsp)
	movq	%r8, 32(%rsp)
	call	__isoc99_sscanf@PLT
.LVL71:
	.loc 1 33 8 view .LVU260
	popq	%rdi
	.cfi_def_cfa_offset 120
	popq	%r8
	.cfi_def_cfa_offset 112
	cmpl	$6, %eax
	movq	8(%rsp), %rcx
	movq	16(%rsp), %r8
	movq	24(%rsp), %r9
	movq	32(%rsp), %r11
	movq	40(%rsp), %r10
	jne	.L62
.LVL72:
.LBB350:
	.loc 1 35 13 is_stmt 1 view .LVU261
	.loc 1 35 28 is_stmt 0 view .LVU262
	movl	64(%rsp), %eax
.LBE350:
.LBE353:
.LBE356:
.LBB357:
.LBB358:
	.loc 1 33 14 view .LVU263
	leaq	.LC8(%rip), %rsi
	movq	%rbp, %rdx
	leaq	.LC11(%rip), %rdi
.LBE358:
.LBE357:
.LBB364:
.LBB354:
.LBB351:
	.loc 1 35 28 view .LVU264
	movb	%al, 6+new_eth_body(%rip)
	.loc 1 34 32 is_stmt 1 view .LVU265
.LVL73:
	.loc 1 34 25 view .LVU266
	.loc 1 35 13 view .LVU267
	.loc 1 35 28 is_stmt 0 view .LVU268
	movl	68(%rsp), %eax
	movb	%al, 7+new_eth_body(%rip)
	.loc 1 34 32 is_stmt 1 view .LVU269
.LVL74:
	.loc 1 34 25 view .LVU270
	.loc 1 35 13 view .LVU271
	.loc 1 35 28 is_stmt 0 view .LVU272
	movl	72(%rsp), %eax
	movb	%al, 8+new_eth_body(%rip)
	.loc 1 34 32 is_stmt 1 view .LVU273
.LVL75:
	.loc 1 34 25 view .LVU274
	.loc 1 35 13 view .LVU275
	.loc 1 35 28 is_stmt 0 view .LVU276
	movl	76(%rsp), %eax
	movb	%al, 9+new_eth_body(%rip)
	.loc 1 34 32 is_stmt 1 view .LVU277
.LVL76:
	.loc 1 34 25 view .LVU278
	.loc 1 35 13 view .LVU279
	.loc 1 35 28 is_stmt 0 view .LVU280
	movl	80(%rsp), %eax
	movb	%al, 10+new_eth_body(%rip)
	.loc 1 34 32 is_stmt 1 view .LVU281
.LVL77:
	.loc 1 34 25 view .LVU282
	.loc 1 35 13 view .LVU283
	.loc 1 35 28 is_stmt 0 view .LVU284
	movl	84(%rsp), %eax
.LBE351:
.LBE354:
.LBE364:
.LBB365:
.LBB361:
	.loc 1 33 14 view .LVU285
	pushq	%r10
	.cfi_def_cfa_offset 120
	pushq	%r11
	.cfi_def_cfa_offset 128
.LBE361:
.LBE365:
.LBB366:
.LBB355:
.LBB352:
	.loc 1 35 28 view .LVU286
	movb	%al, 11+new_eth_body(%rip)
	.loc 1 34 32 is_stmt 1 view .LVU287
.LVL78:
	.loc 1 34 25 view .LVU288
	.loc 1 34 25 is_stmt 0 view .LVU289
.LBE352:
.LBE355:
.LBE366:
	.loc 1 84 3 is_stmt 1 view .LVU290
.LBB367:
.LBI357:
	.loc 1 31 5 view .LVU291
.LBB362:
	.loc 1 32 5 view .LVU292
	.loc 1 33 5 view .LVU293
	.loc 1 33 14 is_stmt 0 view .LVU294
	xorl	%eax, %eax
	call	__isoc99_sscanf@PLT
.LVL79:
	.loc 1 33 8 view .LVU295
	popq	%rcx
	.cfi_def_cfa_offset 120
	popq	%rsi
	.cfi_def_cfa_offset 112
	cmpl	$6, %eax
	jne	.L63
.LVL80:
.LBB359:
	.loc 1 35 13 is_stmt 1 view .LVU296
	.loc 1 35 28 is_stmt 0 view .LVU297
	movl	64(%rsp), %eax
.LBE359:
.LBE362:
.LBE367:
	.loc 1 91 19 view .LVU298
	movl	$69, %edx
.LBB368:
.LBB369:
	.loc 1 44 9 view .LVU299
	leaq	60(%rsp), %rbp
	leaq	.LC12(%rip), %rsi
.LBE369:
.LBE368:
	.loc 1 91 19 view .LVU300
	movw	%dx, new_ip_body(%rip)
.LBB372:
.LBB370:
	.loc 1 44 9 view .LVU301
	movl	$2, %edi
	movq	%rbp, %rdx
.LBE370:
.LBE372:
.LBB373:
.LBB363:
.LBB360:
	.loc 1 35 28 view .LVU302
	movb	%al, new_eth_body(%rip)
	.loc 1 34 32 is_stmt 1 view .LVU303
.LVL81:
	.loc 1 34 25 view .LVU304
	.loc 1 35 13 view .LVU305
	.loc 1 35 28 is_stmt 0 view .LVU306
	movl	68(%rsp), %eax
	movb	%al, 1+new_eth_body(%rip)
	.loc 1 34 32 is_stmt 1 view .LVU307
.LVL82:
	.loc 1 34 25 view .LVU308
	.loc 1 35 13 view .LVU309
	.loc 1 35 28 is_stmt 0 view .LVU310
	movl	72(%rsp), %eax
	movb	%al, 2+new_eth_body(%rip)
	.loc 1 34 32 is_stmt 1 view .LVU311
.LVL83:
	.loc 1 34 25 view .LVU312
	.loc 1 35 13 view .LVU313
	.loc 1 35 28 is_stmt 0 view .LVU314
	movl	76(%rsp), %eax
	movb	%al, 3+new_eth_body(%rip)
	.loc 1 34 32 is_stmt 1 view .LVU315
.LVL84:
	.loc 1 34 25 view .LVU316
	.loc 1 35 13 view .LVU317
	.loc 1 35 28 is_stmt 0 view .LVU318
	movl	80(%rsp), %eax
	movb	%al, 4+new_eth_body(%rip)
	.loc 1 34 32 is_stmt 1 view .LVU319
.LVL85:
	.loc 1 34 25 view .LVU320
	.loc 1 35 13 view .LVU321
	.loc 1 35 28 is_stmt 0 view .LVU322
	movl	84(%rsp), %eax
	movb	%al, 5+new_eth_body(%rip)
	.loc 1 34 32 is_stmt 1 view .LVU323
.LVL86:
	.loc 1 34 25 view .LVU324
	.loc 1 34 25 is_stmt 0 view .LVU325
.LBE360:
.LBE363:
.LBE373:
	.loc 1 88 3 is_stmt 1 view .LVU326
	.loc 2 37 3 view .LVU327
	.loc 1 88 24 is_stmt 0 view .LVU328
	movl	$8, %eax
	movw	%ax, 12+new_eth_body(%rip)
	.loc 1 90 3 is_stmt 1 view .LVU329
	.loc 1 91 3 view .LVU330
	.loc 1 92 3 view .LVU331
	.loc 1 94 3 view .LVU332
.LVL87:
	.loc 2 37 3 view .LVU333
	.loc 1 95 3 view .LVU334
	.loc 2 37 3 view .LVU335
	.loc 1 96 3 view .LVU336
	.loc 1 97 3 view .LVU337
	.loc 1 98 3 view .LVU338
	.loc 1 94 18 is_stmt 0 view .LVU339
	movabsq	$18966579773440, %rax
	movq	%rax, 4+new_ip_body(%rip)
	.loc 1 99 3 is_stmt 1 view .LVU340
.LVL88:
.LBB374:
.LBI368:
	.loc 1 42 10 view .LVU341
.LBB371:
	.loc 1 43 5 view .LVU342
	.loc 1 44 5 view .LVU343
	.loc 1 44 9 is_stmt 0 view .LVU344
	call	inet_pton@PLT
.LVL89:
	.loc 1 44 8 view .LVU345
	cmpl	$1, %eax
	jne	.L64
	.loc 1 47 5 is_stmt 1 view .LVU346
	.loc 1 47 16 is_stmt 0 view .LVU347
	movl	60(%rsp), %eax
.LVL90:
	.loc 1 47 16 view .LVU348
.LBE371:
.LBE374:
	.loc 1 99 21 view .LVU349
	movl	%eax, 12+new_ip_body(%rip)
	.loc 1 100 3 is_stmt 1 view .LVU350
	.loc 1 100 6 is_stmt 0 view .LVU351
	testl	%eax, %eax
	je	.L47
	.loc 1 104 3 is_stmt 1 view .LVU352
.LVL91:
.LBB375:
.LBI375:
	.loc 1 42 10 view .LVU353
.LBB376:
	.loc 1 43 5 view .LVU354
	.loc 1 44 5 view .LVU355
	.loc 1 44 9 is_stmt 0 view .LVU356
	movq	%rbp, %rdx
	leaq	.LC14(%rip), %rsi
	movl	$2, %edi
	call	inet_pton@PLT
.LVL92:
	.loc 1 44 8 view .LVU357
	cmpl	$1, %eax
	je	.L49
.LVL93:
	.loc 1 44 8 view .LVU358
.LBE376:
.LBE375:
	.loc 1 104 21 view .LVU359
	movl	$0, 16+new_ip_body(%rip)
	.loc 1 105 3 is_stmt 1 view .LVU360
.L50:
	.loc 1 106 5 view .LVU361
	.loc 1 106 5 view .LVU362
.LVL94:
.LBB378:
.LBI378:
	.loc 4 98 1 view .LVU363
.LBB379:
	.loc 4 100 3 view .LVU364
	.loc 4 100 10 is_stmt 0 view .LVU365
	movq	stderr(%rip), %rdi
	leaq	.LC0(%rip), %rcx
	movl	$1, %esi
	xorl	%eax, %eax
	leaq	.LC1(%rip), %rdx
	movl	$106, %r9d
	leaq	__func__.11012(%rip), %r8
	call	__fprintf_chk@PLT
.LVL95:
	.loc 4 100 10 view .LVU366
.LBE379:
.LBE378:
	.loc 1 106 5 is_stmt 1 view .LVU367
.LBB380:
.LBI380:
	.loc 4 98 1 view .LVU368
.LBB381:
	.loc 4 100 3 view .LVU369
	.loc 4 100 10 is_stmt 0 view .LVU370
	movl	$18, %edx
	movq	stderr(%rip), %rcx
	movl	$1, %esi
	leaq	.LC15(%rip), %rdi
.LVL96:
	.p2align 4,,10
	.p2align 3
.L60:
	.loc 4 100 10 view .LVU371
.LBE381:
.LBE380:
.LBB382:
.LBB383:
	call	fwrite@PLT
.LVL97:
.LBE383:
.LBE382:
	.loc 1 135 5 is_stmt 1 view .LVU372
.LBB385:
.LBI385:
	.loc 4 98 1 view .LVU373
.LBB386:
	.loc 4 100 3 view .LVU374
	.loc 4 100 10 is_stmt 0 view .LVU375
	movq	stderr(%rip), %rsi
	movl	$10, %edi
	call	fputc@PLT
.LVL98:
	.loc 4 100 10 view .LVU376
.LBE386:
.LBE385:
	.loc 1 135 5 is_stmt 1 view .LVU377
	.loc 1 136 5 view .LVU378
	.loc 1 136 12 is_stmt 0 view .LVU379
	movl	$-1, %eax
.L42:
	.loc 1 139 1 view .LVU380
	movq	88(%rsp), %rdx
	xorq	%fs:40, %rdx
	jne	.L65
	addq	$96, %rsp
	.cfi_remember_state
	.cfi_def_cfa_offset 16
	popq	%rbp
	.cfi_def_cfa_offset 8
	ret
.LVL99:
	.p2align 4,,10
	.p2align 3
.L64:
	.cfi_restore_state
	.loc 1 99 21 view .LVU381
	movl	$0, 12+new_ip_body(%rip)
	.loc 1 100 3 is_stmt 1 view .LVU382
.L47:
	.loc 1 101 5 view .LVU383
	.loc 1 101 5 view .LVU384
.LVL100:
.LBB387:
.LBI387:
	.loc 4 98 1 view .LVU385
.LBB388:
	.loc 4 100 3 view .LVU386
	.loc 4 100 10 is_stmt 0 view .LVU387
	movq	stderr(%rip), %rdi
	leaq	.LC0(%rip), %rcx
	movl	$1, %esi
	xorl	%eax, %eax
	leaq	.LC1(%rip), %rdx
	movl	$101, %r9d
	leaq	__func__.11012(%rip), %r8
	call	__fprintf_chk@PLT
.LVL101:
	.loc 4 100 10 view .LVU388
.LBE388:
.LBE387:
	.loc 1 101 5 is_stmt 1 view .LVU389
.LBB389:
.LBI389:
	.loc 4 98 1 view .LVU390
.LBB390:
	.loc 4 100 3 view .LVU391
	.loc 4 100 10 is_stmt 0 view .LVU392
	movl	$20, %edx
	movq	stderr(%rip), %rcx
	movl	$1, %esi
	leaq	.LC13(%rip), %rdi
	jmp	.L60
.LVL102:
	.p2align 4,,10
	.p2align 3
.L49:
	.loc 4 100 10 view .LVU393
.LBE390:
.LBE389:
.LBB391:
.LBB377:
	.loc 1 47 5 is_stmt 1 view .LVU394
	.loc 1 47 16 is_stmt 0 view .LVU395
	movl	60(%rsp), %eax
.LVL103:
	.loc 1 47 16 view .LVU396
.LBE377:
.LBE391:
	.loc 1 104 21 view .LVU397
	movl	%eax, 16+new_ip_body(%rip)
	.loc 1 105 3 is_stmt 1 view .LVU398
	.loc 1 105 6 is_stmt 0 view .LVU399
	testl	%eax, %eax
	je	.L50
	.loc 1 110 3 is_stmt 1 view .LVU400
	.loc 1 112 25 is_stmt 0 view .LVU401
	movslq	iv_len(%rip), %rdi
	.loc 1 110 7 view .LVU402
	leaq	.LC16(%rip), %rax
	movq	%rax, key(%rip)
	.loc 1 112 3 is_stmt 1 view .LVU403
	.loc 1 112 25 is_stmt 0 view .LVU404
	movq	%rdi, %rbp
	call	malloc@PLT
.LVL104:
	.loc 1 112 6 view .LVU405
	movq	%rax, iv(%rip)
	.loc 1 113 3 is_stmt 1 view .LVU406
	.loc 1 112 25 is_stmt 0 view .LVU407
	movq	%rax, %rdi
	.loc 1 113 6 view .LVU408
	testq	%rax, %rax
	je	.L66
	.loc 1 117 3 is_stmt 1 view .LVU409
	.loc 1 117 7 is_stmt 0 view .LVU410
	movl	%ebp, %esi
	call	RAND_bytes@PLT
.LVL105:
	.loc 1 117 6 view .LVU411
	cmpl	$1, %eax
	jne	.L67
	.loc 1 121 3 is_stmt 1 view .LVU412
	.loc 1 121 9 is_stmt 0 view .LVU413
	call	EVP_CIPHER_CTX_new@PLT
.LVL106:
	.loc 1 121 7 view .LVU414
	movq	%rax, ctx(%rip)
	.loc 1 122 3 is_stmt 1 view .LVU415
	.loc 1 122 6 is_stmt 0 view .LVU416
	testq	%rax, %rax
	je	.L68
	.loc 1 126 3 is_stmt 1 view .LVU417
	.loc 1 126 7 is_stmt 0 view .LVU418
	call	EVP_aes_128_gcm@PLT
.LVL107:
	movq	ctx(%rip), %rdi
	xorl	%ecx, %ecx
	xorl	%edx, %edx
	xorl	%r8d, %r8d
	movq	%rax, %rsi
	call	EVP_EncryptInit_ex@PLT
.LVL108:
	.loc 1 126 6 view .LVU419
	cmpl	$1, %eax
	jne	.L69
	.loc 1 130 3 is_stmt 1 view .LVU420
	.loc 1 130 7 is_stmt 0 view .LVU421
	movl	iv_len(%rip), %edx
	movq	ctx(%rip), %rdi
	xorl	%ecx, %ecx
	movl	$9, %esi
	call	EVP_CIPHER_CTX_ctrl@PLT
.LVL109:
	.loc 1 130 6 view .LVU422
	cmpl	$1, %eax
	jne	.L70
	.loc 1 134 3 is_stmt 1 view .LVU423
	.loc 1 134 7 is_stmt 0 view .LVU424
	movq	iv(%rip), %r8
	movq	key(%rip), %rcx
	xorl	%edx, %edx
	xorl	%esi, %esi
	movq	ctx(%rip), %rdi
	call	EVP_EncryptInit_ex@PLT
.LVL110:
	.loc 1 134 6 view .LVU425
	cmpl	$1, %eax
	jne	.L71
	.loc 1 138 10 view .LVU426
	xorl	%eax, %eax
	jmp	.L42
.LVL111:
	.p2align 4,,10
	.p2align 3
.L62:
	.loc 1 81 5 is_stmt 1 view .LVU427
	.loc 1 81 5 view .LVU428
.LBB392:
.LBI392:
	.loc 4 98 1 view .LVU429
.LBB393:
	.loc 4 100 3 view .LVU430
	.loc 4 100 10 is_stmt 0 view .LVU431
	movl	$81, %r9d
.LVL112:
.L61:
	.loc 4 100 10 view .LVU432
.LBE393:
.LBE392:
.LBB394:
.LBB395:
	movq	stderr(%rip), %rdi
	leaq	.LC0(%rip), %rcx
	xorl	%eax, %eax
	leaq	.LC1(%rip), %rdx
	movl	$1, %esi
	leaq	__func__.11012(%rip), %r8
	call	__fprintf_chk@PLT
.LVL113:
.LBE395:
.LBE394:
	.loc 1 85 5 is_stmt 1 view .LVU433
.LBB397:
.LBI397:
	.loc 4 98 1 view .LVU434
.LBB398:
	.loc 4 100 3 view .LVU435
	.loc 4 100 10 is_stmt 0 view .LVU436
	movl	$21, %edx
	movq	stderr(%rip), %rcx
	movl	$1, %esi
	leaq	.LC10(%rip), %rdi
	jmp	.L60
.LVL114:
	.p2align 4,,10
	.p2align 3
.L63:
	.loc 4 100 10 view .LVU437
.LBE398:
.LBE397:
	.loc 1 85 5 is_stmt 1 view .LVU438
	.loc 1 85 5 view .LVU439
.LBB399:
.LBI394:
	.loc 4 98 1 view .LVU440
.LBB396:
	.loc 4 100 3 view .LVU441
	.loc 4 100 10 is_stmt 0 view .LVU442
	movl	$85, %r9d
	jmp	.L61
.LVL115:
	.p2align 4,,10
	.p2align 3
.L67:
	.loc 4 100 10 view .LVU443
.LBE396:
.LBE399:
	.loc 1 118 5 is_stmt 1 view .LVU444
	.loc 1 118 5 view .LVU445
.LBB400:
.LBI400:
	.loc 4 98 1 view .LVU446
.LBB401:
	.loc 4 100 3 view .LVU447
	.loc 4 100 10 is_stmt 0 view .LVU448
	movq	stderr(%rip), %rdi
	leaq	.LC0(%rip), %rcx
	movl	$1, %esi
	xorl	%eax, %eax
	leaq	.LC1(%rip), %rdx
	movl	$118, %r9d
	leaq	__func__.11012(%rip), %r8
	call	__fprintf_chk@PLT
.LVL116:
	.loc 4 100 10 view .LVU449
.LBE401:
.LBE400:
	.loc 1 118 5 is_stmt 1 view .LVU450
.LBB402:
.LBI402:
	.loc 4 98 1 view .LVU451
.LBB403:
	.loc 4 100 3 view .LVU452
	.loc 4 100 10 is_stmt 0 view .LVU453
	movl	$28, %edx
	movq	stderr(%rip), %rcx
	movl	$1, %esi
	leaq	.LC18(%rip), %rdi
	jmp	.L60
.LVL117:
	.p2align 4,,10
	.p2align 3
.L69:
	.loc 4 100 10 view .LVU454
.LBE403:
.LBE402:
	.loc 1 127 5 is_stmt 1 view .LVU455
	.loc 1 127 5 view .LVU456
.LBB404:
.LBI404:
	.loc 4 98 1 view .LVU457
.LBB405:
	.loc 4 100 3 view .LVU458
	.loc 4 100 10 is_stmt 0 view .LVU459
	movq	stderr(%rip), %rdi
	leaq	.LC0(%rip), %rcx
	movl	$1, %esi
	xorl	%eax, %eax
	leaq	.LC1(%rip), %rdx
	movl	$127, %r9d
	leaq	__func__.11012(%rip), %r8
	call	__fprintf_chk@PLT
.LVL118:
	.loc 4 100 10 view .LVU460
.LBE405:
.LBE404:
	.loc 1 127 5 is_stmt 1 view .LVU461
.LBB406:
.LBI406:
	.loc 4 98 1 view .LVU462
.LBB407:
	.loc 4 100 3 view .LVU463
	.loc 4 100 10 is_stmt 0 view .LVU464
	movl	$24, %edx
	movq	stderr(%rip), %rcx
	movl	$1, %esi
	leaq	.LC20(%rip), %rdi
	jmp	.L60
.LVL119:
	.p2align 4,,10
	.p2align 3
.L70:
	.loc 4 100 10 view .LVU465
.LBE407:
.LBE406:
	.loc 1 131 5 is_stmt 1 view .LVU466
	.loc 1 131 5 view .LVU467
.LBB408:
.LBI408:
	.loc 4 98 1 view .LVU468
.LBB409:
	.loc 4 100 3 view .LVU469
	.loc 4 100 10 is_stmt 0 view .LVU470
	movq	stderr(%rip), %rdi
	leaq	.LC0(%rip), %rcx
	movl	$1, %esi
	xorl	%eax, %eax
	leaq	.LC1(%rip), %rdx
	movl	$131, %r9d
	leaq	__func__.11012(%rip), %r8
	call	__fprintf_chk@PLT
.LVL120:
	.loc 4 100 10 view .LVU471
.LBE409:
.LBE408:
	.loc 1 131 5 is_stmt 1 view .LVU472
.LBB410:
.LBI410:
	.loc 4 98 1 view .LVU473
.LBB411:
	.loc 4 100 3 view .LVU474
	.loc 4 100 10 is_stmt 0 view .LVU475
	movl	$31, %edx
	movq	stderr(%rip), %rcx
	movl	$1, %esi
	leaq	.LC21(%rip), %rdi
	jmp	.L60
.LVL121:
.L71:
	.loc 4 100 10 view .LVU476
.LBE411:
.LBE410:
	.loc 1 135 5 is_stmt 1 view .LVU477
	.loc 1 135 5 view .LVU478
.LBB412:
.LBI412:
	.loc 4 98 1 view .LVU479
.LBB413:
	.loc 4 100 3 view .LVU480
	.loc 4 100 10 is_stmt 0 view .LVU481
	movq	stderr(%rip), %rdi
	leaq	.LC0(%rip), %rcx
	movl	$1, %esi
	xorl	%eax, %eax
	leaq	.LC1(%rip), %rdx
	movl	$135, %r9d
	leaq	__func__.11012(%rip), %r8
	call	__fprintf_chk@PLT
.LVL122:
	.loc 4 100 10 view .LVU482
.LBE413:
.LBE412:
	.loc 1 135 5 is_stmt 1 view .LVU483
.LBB414:
.LBI382:
	.loc 4 98 1 view .LVU484
.LBB384:
	.loc 4 100 3 view .LVU485
	.loc 4 100 10 is_stmt 0 view .LVU486
	movl	$39, %edx
	movq	stderr(%rip), %rcx
	movl	$1, %esi
	leaq	.LC22(%rip), %rdi
	jmp	.L60
.LVL123:
.L68:
	.loc 4 100 10 view .LVU487
.LBE384:
.LBE414:
	.loc 1 123 5 is_stmt 1 view .LVU488
	.loc 1 123 5 view .LVU489
.LBB415:
.LBI415:
	.loc 4 98 1 view .LVU490
.LBB416:
	.loc 4 100 3 view .LVU491
	.loc 4 100 10 is_stmt 0 view .LVU492
	movq	stderr(%rip), %rdi
	movl	$1, %esi
	leaq	.LC0(%rip), %rcx
	leaq	.LC1(%rip), %rdx
	movl	$123, %r9d
	leaq	__func__.11012(%rip), %r8
	call	__fprintf_chk@PLT
.LVL124:
	.loc 4 100 10 view .LVU493
.LBE416:
.LBE415:
	.loc 1 123 5 is_stmt 1 view .LVU494
.LBB417:
.LBI417:
	.loc 4 98 1 view .LVU495
.LBB418:
	.loc 4 100 3 view .LVU496
	.loc 4 100 10 is_stmt 0 view .LVU497
	movl	$31, %edx
	movq	stderr(%rip), %rcx
	movl	$1, %esi
	leaq	.LC19(%rip), %rdi
	jmp	.L60
.LVL125:
.L66:
	.loc 4 100 10 view .LVU498
.LBE418:
.LBE417:
	.loc 1 114 5 is_stmt 1 view .LVU499
	.loc 1 114 5 view .LVU500
.LBB419:
.LBI419:
	.loc 4 98 1 view .LVU501
.LBB420:
	.loc 4 100 3 view .LVU502
	.loc 4 100 10 is_stmt 0 view .LVU503
	movq	stderr(%rip), %rdi
	leaq	.LC0(%rip), %rcx
	movl	$1, %esi
	xorl	%eax, %eax
	leaq	.LC1(%rip), %rdx
	movl	$114, %r9d
	leaq	__func__.11012(%rip), %r8
	call	__fprintf_chk@PLT
.LVL126:
	.loc 4 100 10 view .LVU504
.LBE420:
.LBE419:
	.loc 1 114 5 is_stmt 1 view .LVU505
.LBB421:
.LBI421:
	.loc 4 98 1 view .LVU506
.LBB422:
	.loc 4 100 3 view .LVU507
	.loc 4 100 10 is_stmt 0 view .LVU508
	movl	$21, %edx
	movq	stderr(%rip), %rcx
	movl	$1, %esi
	leaq	.LC17(%rip), %rdi
	jmp	.L60
.LVL127:
.L65:
	.loc 4 100 10 view .LVU509
.LBE422:
.LBE421:
	.loc 1 139 1 view .LVU510
	call	__stack_chk_fail@PLT
.LVL128:
	.cfi_endproc
.LFE379:
	.size	setup_new_hdr, .-setup_new_hdr
	.section	.rodata.str1.1
.LC23:
	.string	"trap!"
	.text
	.p2align 4
	.globl	trap
	.type	trap, @function
trap:
.LFB380:
	.loc 1 141 13 is_stmt 1 view -0
	.cfi_startproc
	endbr64
	pushq	%rax
	.cfi_def_cfa_offset 16
	popq	%rax
	.cfi_def_cfa_offset 8
	.loc 1 142 3 view .LVU512
.LVL129:
.LBB423:
.LBI423:
	.loc 4 105 1 view .LVU513
.LBB424:
	.loc 4 107 3 view .LVU514
	.loc 4 107 10 is_stmt 0 view .LVU515
	leaq	.LC23(%rip), %rdi
.LBE424:
.LBE423:
	.loc 1 141 13 view .LVU516
	subq	$8, %rsp
	.cfi_def_cfa_offset 16
.LBB426:
.LBB425:
	.loc 4 107 10 view .LVU517
	call	puts@PLT
.LVL130:
	.loc 4 107 10 view .LVU518
.LBE425:
.LBE426:
	.loc 1 143 3 is_stmt 1 view .LVU519
	movl	$1, %edi
	call	exit@PLT
.LVL131:
	.cfi_endproc
.LFE380:
	.size	trap, .-trap
	.section	.rodata.str1.1
.LC24:
	.string	"cannot setup new header"
.LC25:
	.string	"%s:%s:%i: debug: "
.LC26:
	.string	"Start"
.LC27:
	.string	"nfc_run: %d"
	.section	.text.startup,"ax",@progbits
	.p2align 4
	.globl	main
	.type	main, @function
main:
.LFB381:
	.loc 1 146 12 view -0
	.cfi_startproc
	endbr64
	.loc 1 147 3 view .LVU521
	.loc 1 148 3 view .LVU522
	.loc 1 146 12 is_stmt 0 view .LVU523
	pushq	%rbp
	.cfi_def_cfa_offset 16
	.cfi_offset 6, -16
	.loc 1 148 7 view .LVU524
	xorl	%eax, %eax
	call	setup_new_hdr
.LVL132:
	.loc 1 148 6 view .LVU525
	testl	%eax, %eax
	js	.L78
	.loc 1 152 3 is_stmt 1 view .LVU526
	.loc 1 152 3 view .LVU527
.LVL133:
.LBB427:
.LBI427:
	.loc 4 98 1 view .LVU528
.LBB428:
	.loc 4 100 3 view .LVU529
	.loc 4 100 10 is_stmt 0 view .LVU530
	movq	stderr(%rip), %rdi
	movl	$152, %r9d
	xorl	%eax, %eax
	leaq	__func__.11018(%rip), %r8
	leaq	.LC0(%rip), %rcx
	leaq	.LC25(%rip), %rdx
	movl	$1, %esi
	call	__fprintf_chk@PLT
.LVL134:
	.loc 4 100 10 view .LVU531
.LBE428:
.LBE427:
	.loc 1 152 3 is_stmt 1 view .LVU532
.LBB429:
.LBI429:
	.loc 4 98 1 view .LVU533
.LBB430:
	.loc 4 100 3 view .LVU534
	.loc 4 100 10 is_stmt 0 view .LVU535
	movl	$5, %edx
	movq	stderr(%rip), %rcx
	movl	$1, %esi
	leaq	.LC26(%rip), %rdi
	call	fwrite@PLT
.LVL135:
	.loc 4 100 10 view .LVU536
.LBE430:
.LBE429:
	.loc 1 152 3 is_stmt 1 view .LVU537
.LBB431:
.LBI431:
	.loc 4 98 1 view .LVU538
.LBB432:
	.loc 4 100 3 view .LVU539
	.loc 4 100 10 is_stmt 0 view .LVU540
	movq	stderr(%rip), %rsi
	movl	$10, %edi
	call	fputc@PLT
.LVL136:
	.loc 4 100 10 view .LVU541
.LBE432:
.LBE431:
	.loc 1 152 3 is_stmt 1 view .LVU542
	.loc 1 153 3 view .LVU543
	call	nfc_create_poll_thread@PLT
.LVL137:
	.loc 1 154 3 view .LVU544
	.loc 1 154 9 is_stmt 0 view .LVU545
	leaq	nfc_cb(%rip), %rdi
	call	nfc_run@PLT
.LVL138:
.LBB433:
.LBB434:
	.loc 4 100 10 view .LVU546
	movl	$155, %r9d
	movq	stderr(%rip), %rdi
	leaq	__func__.11018(%rip), %r8
.LBE434:
.LBE433:
	.loc 1 154 9 view .LVU547
	movl	%eax, %ebp
.LVL139:
	.loc 1 155 3 is_stmt 1 view .LVU548
	.loc 1 155 3 view .LVU549
.LBB436:
.LBI433:
	.loc 4 98 1 view .LVU550
.LBB435:
	.loc 4 100 3 view .LVU551
	.loc 4 100 10 is_stmt 0 view .LVU552
	leaq	.LC0(%rip), %rcx
	leaq	.LC25(%rip), %rdx
	xorl	%eax, %eax
.LVL140:
	.loc 4 100 10 view .LVU553
	movl	$1, %esi
	call	__fprintf_chk@PLT
.LVL141:
	.loc 4 100 10 view .LVU554
.LBE435:
.LBE436:
	.loc 1 155 3 is_stmt 1 view .LVU555
.LBB437:
.LBI437:
	.loc 4 98 1 view .LVU556
.LBB438:
	.loc 4 100 3 view .LVU557
	.loc 4 100 10 is_stmt 0 view .LVU558
	movq	stderr(%rip), %rdi
	movl	%ebp, %ecx
	xorl	%eax, %eax
	leaq	.LC27(%rip), %rdx
	movl	$1, %esi
	call	__fprintf_chk@PLT
.LVL142:
	.loc 4 100 10 view .LVU559
.LBE438:
.LBE437:
	.loc 1 155 3 is_stmt 1 view .LVU560
.LBB439:
.LBI439:
	.loc 4 98 1 view .LVU561
.LBB440:
	.loc 4 100 3 view .LVU562
	.loc 4 100 10 is_stmt 0 view .LVU563
	movq	stderr(%rip), %rsi
	movl	$10, %edi
	call	fputc@PLT
.LVL143:
	.loc 4 100 10 view .LVU564
.LBE440:
.LBE439:
	.loc 1 155 3 is_stmt 1 view .LVU565
	.loc 1 156 3 view .LVU566
	.loc 1 156 10 is_stmt 0 view .LVU567
	xorl	%eax, %eax
	.loc 1 157 1 view .LVU568
	popq	%rbp
	.cfi_remember_state
	.cfi_def_cfa_offset 8
.LVL144:
	.loc 1 157 1 view .LVU569
	ret
.L78:
	.cfi_restore_state
	.loc 1 149 5 is_stmt 1 view .LVU570
	.loc 1 149 5 view .LVU571
.LVL145:
.LBB441:
.LBI441:
	.loc 4 98 1 view .LVU572
.LBB442:
	.loc 4 100 3 view .LVU573
	.loc 4 100 10 is_stmt 0 view .LVU574
	movq	stderr(%rip), %rdi
	movl	$149, %r9d
	xorl	%eax, %eax
	leaq	__func__.11018(%rip), %r8
	leaq	.LC0(%rip), %rcx
	leaq	.LC1(%rip), %rdx
	movl	$1, %esi
	call	__fprintf_chk@PLT
.LVL146:
	.loc 4 100 10 view .LVU575
.LBE442:
.LBE441:
	.loc 1 149 5 is_stmt 1 view .LVU576
.LBB443:
.LBI443:
	.loc 4 98 1 view .LVU577
.LBB444:
	.loc 4 100 3 view .LVU578
	.loc 4 100 10 is_stmt 0 view .LVU579
	movl	$23, %edx
	movq	stderr(%rip), %rcx
	movl	$1, %esi
	leaq	.LC24(%rip), %rdi
	call	fwrite@PLT
.LVL147:
	.loc 4 100 10 view .LVU580
.LBE444:
.LBE443:
	.loc 1 149 5 is_stmt 1 view .LVU581
.LBB445:
.LBI445:
	.loc 4 98 1 view .LVU582
.LBB446:
	.loc 4 100 3 view .LVU583
	.loc 4 100 10 is_stmt 0 view .LVU584
	movq	stderr(%rip), %rsi
	movl	$10, %edi
	call	fputc@PLT
.LVL148:
	.loc 4 100 10 view .LVU585
.LBE446:
.LBE445:
	.loc 1 149 5 is_stmt 1 view .LVU586
	.loc 1 150 5 view .LVU587
	.loc 1 150 12 is_stmt 0 view .LVU588
	movl	$1, %eax
	.loc 1 157 1 view .LVU589
	popq	%rbp
	.cfi_def_cfa_offset 8
	ret
	.cfi_endproc
.LFE381:
	.size	main, .-main
	.section	.rodata
	.type	__func__.11046, @object
	.size	__func__.11046, 7
__func__.11046:
	.string	"nfc_cb"
	.type	__func__.11018, @object
	.size	__func__.11018, 5
__func__.11018:
	.string	"main"
	.align 8
	.type	__func__.11012, @object
	.size	__func__.11012, 14
__func__.11012:
	.string	"setup_new_hdr"
	.globl	tmp3
	.bss
	.align 4
	.type	tmp3, @object
	.size	tmp3, 4
tmp3:
	.zero	4
	.globl	tag_len
	.data
	.align 4
	.type	tag_len, @object
	.size	tag_len, 4
tag_len:
	.long	16
	.comm	tag,16,16
	.globl	iv_len
	.align 4
	.type	iv_len, @object
	.size	iv_len, 4
iv_len:
	.long	12
	.comm	iv,8,8
	.comm	key,8,8
	.comm	ctx,8,8
	.comm	new_ip_body,20,16
	.comm	new_eth_body,14,8
	.text
.Letext0:
	.file 5 "/usr/lib/gcc/x86_64-linux-gnu/9/include/stddef.h"
	.file 6 "/usr/include/x86_64-linux-gnu/bits/types.h"
	.file 7 "/usr/include/x86_64-linux-gnu/bits/stdint-uintn.h"
	.file 8 "/usr/include/asm-generic/int-ll64.h"
	.file 9 "/usr/include/linux/types.h"
	.file 10 "/usr/include/linux/if_ether.h"
	.file 11 "/usr/include/linux/ip.h"
	.file 12 "/usr/include/linux/in6.h"
	.file 13 "/usr/include/linux/ipv6.h"
	.file 14 "/usr/include/linux/udp.h"
	.file 15 "/usr/include/linux/tcp.h"
	.file 16 "/usr/include/linux/icmp.h"
	.file 17 "/usr/include/linux/icmpv6.h"
	.file 18 "/usr/include/netinet/in.h"
	.file 19 "/usr/include/openssl/ossl_typ.h"
	.file 20 "/usr/include/x86_64-linux-gnu/bits/types/struct_FILE.h"
	.file 21 "/usr/include/x86_64-linux-gnu/bits/types/FILE.h"
	.file 22 "/usr/include/stdio.h"
	.file 23 "/usr/include/x86_64-linux-gnu/bits/sys_errlist.h"
	.file 24 "/usr/include/time.h"
	.file 25 "/usr/include/openssl/asn1.h"
	.file 26 "../../../../src/include/nf/user/nfc.h"
	.file 27 "<built-in>"
	.file 28 "/usr/include/openssl/evp.h"
	.file 29 "/usr/include/stdlib.h"
	.file 30 "/usr/include/arpa/inet.h"
	.file 31 "/usr/include/openssl/rand.h"
	.section	.note.GNU-stack,"",@progbits
	.section	.note.gnu.property,"a"
	.align 8
	.long	 1f - 0f
	.long	 4f - 1f
	.long	 5
0:
	.string	 "GNU"
1:
	.align 8
	.long	 0xc0000002
	.long	 3f - 2f
2:
	.long	 0x3
3:
	.align 8
4:
