
u_firewall:     file format elf64-x86-64


Disassembly of section .init:

0000000000001000 <_init>:
    1000:	f3 0f 1e fa          	endbr64 
    1004:	48 83 ec 08          	sub    $0x8,%rsp
    1008:	48 8b 05 d9 3f 00 00 	mov    0x3fd9(%rip),%rax        # 4fe8 <__gmon_start__>
    100f:	48 85 c0             	test   %rax,%rax
    1012:	74 02                	je     1016 <_init+0x16>
    1014:	ff d0                	callq  *%rax
    1016:	48 83 c4 08          	add    $0x8,%rsp
    101a:	c3                   	retq   

Disassembly of section .plt:

0000000000001020 <.plt>:
    1020:	ff 35 4a 3f 00 00    	pushq  0x3f4a(%rip)        # 4f70 <_GLOBAL_OFFSET_TABLE_+0x8>
    1026:	f2 ff 25 4b 3f 00 00 	bnd jmpq *0x3f4b(%rip)        # 4f78 <_GLOBAL_OFFSET_TABLE_+0x10>
    102d:	0f 1f 00             	nopl   (%rax)
    1030:	f3 0f 1e fa          	endbr64 
    1034:	68 00 00 00 00       	pushq  $0x0
    1039:	f2 e9 e1 ff ff ff    	bnd jmpq 1020 <.plt>
    103f:	90                   	nop
    1040:	f3 0f 1e fa          	endbr64 
    1044:	68 01 00 00 00       	pushq  $0x1
    1049:	f2 e9 d1 ff ff ff    	bnd jmpq 1020 <.plt>
    104f:	90                   	nop
    1050:	f3 0f 1e fa          	endbr64 
    1054:	68 02 00 00 00       	pushq  $0x2
    1059:	f2 e9 c1 ff ff ff    	bnd jmpq 1020 <.plt>
    105f:	90                   	nop
    1060:	f3 0f 1e fa          	endbr64 
    1064:	68 03 00 00 00       	pushq  $0x3
    1069:	f2 e9 b1 ff ff ff    	bnd jmpq 1020 <.plt>
    106f:	90                   	nop
    1070:	f3 0f 1e fa          	endbr64 
    1074:	68 04 00 00 00       	pushq  $0x4
    1079:	f2 e9 a1 ff ff ff    	bnd jmpq 1020 <.plt>
    107f:	90                   	nop
    1080:	f3 0f 1e fa          	endbr64 
    1084:	68 05 00 00 00       	pushq  $0x5
    1089:	f2 e9 91 ff ff ff    	bnd jmpq 1020 <.plt>
    108f:	90                   	nop
    1090:	f3 0f 1e fa          	endbr64 
    1094:	68 06 00 00 00       	pushq  $0x6
    1099:	f2 e9 81 ff ff ff    	bnd jmpq 1020 <.plt>
    109f:	90                   	nop
    10a0:	f3 0f 1e fa          	endbr64 
    10a4:	68 07 00 00 00       	pushq  $0x7
    10a9:	f2 e9 71 ff ff ff    	bnd jmpq 1020 <.plt>
    10af:	90                   	nop
    10b0:	f3 0f 1e fa          	endbr64 
    10b4:	68 08 00 00 00       	pushq  $0x8
    10b9:	f2 e9 61 ff ff ff    	bnd jmpq 1020 <.plt>
    10bf:	90                   	nop
    10c0:	f3 0f 1e fa          	endbr64 
    10c4:	68 09 00 00 00       	pushq  $0x9
    10c9:	f2 e9 51 ff ff ff    	bnd jmpq 1020 <.plt>
    10cf:	90                   	nop
    10d0:	f3 0f 1e fa          	endbr64 
    10d4:	68 0a 00 00 00       	pushq  $0xa
    10d9:	f2 e9 41 ff ff ff    	bnd jmpq 1020 <.plt>
    10df:	90                   	nop

Disassembly of section .plt.got:

00000000000010e0 <__cxa_finalize@plt>:
    10e0:	f3 0f 1e fa          	endbr64 
    10e4:	f2 ff 25 f5 3e 00 00 	bnd jmpq *0x3ef5(%rip)        # 4fe0 <__cxa_finalize@GLIBC_2.2.5>
    10eb:	0f 1f 44 00 00       	nopl   0x0(%rax,%rax,1)

Disassembly of section .plt.sec:

00000000000010f0 <__fprintf_chk@plt>:
    10f0:	f3 0f 1e fa          	endbr64 
    10f4:	f2 ff 25 85 3e 00 00 	bnd jmpq *0x3e85(%rip)        # 4f80 <__fprintf_chk@GLIBC_2.3.4>
    10fb:	0f 1f 44 00 00       	nopl   0x0(%rax,%rax,1)

0000000000001100 <__stack_chk_fail@plt>:
    1100:	f3 0f 1e fa          	endbr64 
    1104:	f2 ff 25 7d 3e 00 00 	bnd jmpq *0x3e7d(%rip)        # 4f88 <__stack_chk_fail@GLIBC_2.4>
    110b:	0f 1f 44 00 00       	nopl   0x0(%rax,%rax,1)

0000000000001110 <perror@plt>:
    1110:	f3 0f 1e fa          	endbr64 
    1114:	f2 ff 25 75 3e 00 00 	bnd jmpq *0x3e75(%rip)        # 4f90 <perror@GLIBC_2.2.5>
    111b:	0f 1f 44 00 00       	nopl   0x0(%rax,%rax,1)

0000000000001120 <nfc_run@plt>:
    1120:	f3 0f 1e fa          	endbr64 
    1124:	f2 ff 25 6d 3e 00 00 	bnd jmpq *0x3e6d(%rip)        # 4f98 <nfc_run>
    112b:	0f 1f 44 00 00       	nopl   0x0(%rax,%rax,1)

0000000000001130 <nfc_create_poll_thread@plt>:
    1130:	f3 0f 1e fa          	endbr64 
    1134:	f2 ff 25 65 3e 00 00 	bnd jmpq *0x3e65(%rip)        # 4fa0 <nfc_create_poll_thread>
    113b:	0f 1f 44 00 00       	nopl   0x0(%rax,%rax,1)

0000000000001140 <exit@plt>:
    1140:	f3 0f 1e fa          	endbr64 
    1144:	f2 ff 25 5d 3e 00 00 	bnd jmpq *0x3e5d(%rip)        # 4fa8 <exit@GLIBC_2.2.5>
    114b:	0f 1f 44 00 00       	nopl   0x0(%rax,%rax,1)

0000000000001150 <fputc@plt>:
    1150:	f3 0f 1e fa          	endbr64 
    1154:	f2 ff 25 55 3e 00 00 	bnd jmpq *0x3e55(%rip)        # 4fb0 <fputc@GLIBC_2.2.5>
    115b:	0f 1f 44 00 00       	nopl   0x0(%rax,%rax,1)

0000000000001160 <inet_pton@plt>:
    1160:	f3 0f 1e fa          	endbr64 
    1164:	f2 ff 25 4d 3e 00 00 	bnd jmpq *0x3e4d(%rip)        # 4fb8 <inet_pton@GLIBC_2.2.5>
    116b:	0f 1f 44 00 00       	nopl   0x0(%rax,%rax,1)

0000000000001170 <puts@plt>:
    1170:	f3 0f 1e fa          	endbr64 
    1174:	f2 ff 25 45 3e 00 00 	bnd jmpq *0x3e45(%rip)        # 4fc0 <puts@GLIBC_2.2.5>
    117b:	0f 1f 44 00 00       	nopl   0x0(%rax,%rax,1)

0000000000001180 <__printf_chk@plt>:
    1180:	f3 0f 1e fa          	endbr64 
    1184:	f2 ff 25 3d 3e 00 00 	bnd jmpq *0x3e3d(%rip)        # 4fc8 <__printf_chk@GLIBC_2.3.4>
    118b:	0f 1f 44 00 00       	nopl   0x0(%rax,%rax,1)

0000000000001190 <fwrite@plt>:
    1190:	f3 0f 1e fa          	endbr64 
    1194:	f2 ff 25 35 3e 00 00 	bnd jmpq *0x3e35(%rip)        # 4fd0 <fwrite@GLIBC_2.2.5>
    119b:	0f 1f 44 00 00       	nopl   0x0(%rax,%rax,1)

Disassembly of section .text:

00000000000011a0 <main>:
  // filters[1].icmpopts.enabled = 0;

  filter_num = MAX_FILTER_NUM;
}

int main() {
    11a0:	f3 0f 1e fa          	endbr64 
    11a4:	55                   	push   %rbp
  int ret;

  setup_rules();
    11a5:	31 c0                	xor    %eax,%eax
    11a7:	e8 84 0f 00 00       	callq  2130 <setup_rules>

# ifdef __va_arg_pack
__fortify_function int
fprintf (FILE *__restrict __stream, const char *__restrict __fmt, ...)
{
  return __fprintf_chk (__stream, __USE_FORTIFY_LEVEL - 1, __fmt,
    11ac:	48 8b 3d 6d 3e 00 00 	mov    0x3e6d(%rip),%rdi        # 5020 <stderr@@GLIBC_2.2.5>
    11b3:	31 c0                	xor    %eax,%eax
    11b5:	41 b9 80 00 00 00    	mov    $0x80,%r9d
    11bb:	4c 8d 05 ac 1e 00 00 	lea    0x1eac(%rip),%r8        # 306e <__func__.4038>
    11c2:	48 8d 0d 74 1e 00 00 	lea    0x1e74(%rip),%rcx        # 303d <_IO_stdin_used+0x3d>
    11c9:	be 01 00 00 00       	mov    $0x1,%esi
    11ce:	48 8d 15 75 1e 00 00 	lea    0x1e75(%rip),%rdx        # 304a <_IO_stdin_used+0x4a>
    11d5:	e8 16 ff ff ff       	callq  10f0 <__fprintf_chk@plt>
    11da:	ba 05 00 00 00       	mov    $0x5,%edx
    11df:	48 8b 0d 3a 3e 00 00 	mov    0x3e3a(%rip),%rcx        # 5020 <stderr@@GLIBC_2.2.5>
    11e6:	be 01 00 00 00       	mov    $0x1,%esi
    11eb:	48 8d 3d 6a 1e 00 00 	lea    0x1e6a(%rip),%rdi        # 305c <_IO_stdin_used+0x5c>
    11f2:	e8 99 ff ff ff       	callq  1190 <fwrite@plt>
    11f7:	48 8b 35 22 3e 00 00 	mov    0x3e22(%rip),%rsi        # 5020 <stderr@@GLIBC_2.2.5>
    11fe:	bf 0a 00 00 00       	mov    $0xa,%edi
    1203:	e8 48 ff ff ff       	callq  1150 <fputc@plt>
  print_debug("Start");
  nfc_create_poll_thread();
    1208:	e8 23 ff ff ff       	callq  1130 <nfc_create_poll_thread@plt>
  ret = nfc_run(nfc_cb);
    120d:	48 8d 3d 5c 01 00 00 	lea    0x15c(%rip),%rdi        # 1370 <nfc_cb>
    1214:	e8 07 ff ff ff       	callq  1120 <nfc_run@plt>
    1219:	41 b9 83 00 00 00    	mov    $0x83,%r9d
    121f:	48 8b 3d fa 3d 00 00 	mov    0x3dfa(%rip),%rdi        # 5020 <stderr@@GLIBC_2.2.5>
    1226:	4c 8d 05 41 1e 00 00 	lea    0x1e41(%rip),%r8        # 306e <__func__.4038>
    122d:	89 c5                	mov    %eax,%ebp
    122f:	48 8d 0d 07 1e 00 00 	lea    0x1e07(%rip),%rcx        # 303d <_IO_stdin_used+0x3d>
    1236:	48 8d 15 0d 1e 00 00 	lea    0x1e0d(%rip),%rdx        # 304a <_IO_stdin_used+0x4a>
    123d:	31 c0                	xor    %eax,%eax
    123f:	be 01 00 00 00       	mov    $0x1,%esi
    1244:	e8 a7 fe ff ff       	callq  10f0 <__fprintf_chk@plt>
    1249:	48 8b 3d d0 3d 00 00 	mov    0x3dd0(%rip),%rdi        # 5020 <stderr@@GLIBC_2.2.5>
    1250:	89 e9                	mov    %ebp,%ecx
    1252:	31 c0                	xor    %eax,%eax
    1254:	48 8d 15 07 1e 00 00 	lea    0x1e07(%rip),%rdx        # 3062 <_IO_stdin_used+0x62>
    125b:	be 01 00 00 00       	mov    $0x1,%esi
    1260:	e8 8b fe ff ff       	callq  10f0 <__fprintf_chk@plt>
    1265:	48 8b 35 b4 3d 00 00 	mov    0x3db4(%rip),%rsi        # 5020 <stderr@@GLIBC_2.2.5>
    126c:	bf 0a 00 00 00       	mov    $0xa,%edi
    1271:	e8 da fe ff ff       	callq  1150 <fputc@plt>
  print_debug("nfc_run: %d", ret);
  return 0;
}
    1276:	31 c0                	xor    %eax,%eax
    1278:	5d                   	pop    %rbp
    1279:	c3                   	retq   
    127a:	66 0f 1f 44 00 00    	nopw   0x0(%rax,%rax,1)

0000000000001280 <_start>:
    1280:	f3 0f 1e fa          	endbr64 
    1284:	31 ed                	xor    %ebp,%ebp
    1286:	49 89 d1             	mov    %rdx,%r9
    1289:	5e                   	pop    %rsi
    128a:	48 89 e2             	mov    %rsp,%rdx
    128d:	48 83 e4 f0          	and    $0xfffffffffffffff0,%rsp
    1291:	50                   	push   %rax
    1292:	54                   	push   %rsp
    1293:	4c 8d 05 86 19 00 00 	lea    0x1986(%rip),%r8        # 2c20 <__libc_csu_fini>
    129a:	48 8d 0d 0f 19 00 00 	lea    0x190f(%rip),%rcx        # 2bb0 <__libc_csu_init>
    12a1:	48 8d 3d f8 fe ff ff 	lea    -0x108(%rip),%rdi        # 11a0 <main>
    12a8:	ff 15 42 3d 00 00    	callq  *0x3d42(%rip)        # 4ff0 <__libc_start_main@GLIBC_2.2.5>
    12ae:	f4                   	hlt    
    12af:	90                   	nop

00000000000012b0 <deregister_tm_clones>:
    12b0:	48 8d 3d 59 3d 00 00 	lea    0x3d59(%rip),%rdi        # 5010 <__TMC_END__>
    12b7:	48 8d 05 52 3d 00 00 	lea    0x3d52(%rip),%rax        # 5010 <__TMC_END__>
    12be:	48 39 f8             	cmp    %rdi,%rax
    12c1:	74 15                	je     12d8 <deregister_tm_clones+0x28>
    12c3:	48 8b 05 0e 3d 00 00 	mov    0x3d0e(%rip),%rax        # 4fd8 <_ITM_deregisterTMCloneTable>
    12ca:	48 85 c0             	test   %rax,%rax
    12cd:	74 09                	je     12d8 <deregister_tm_clones+0x28>
    12cf:	ff e0                	jmpq   *%rax
    12d1:	0f 1f 80 00 00 00 00 	nopl   0x0(%rax)
    12d8:	c3                   	retq   
    12d9:	0f 1f 80 00 00 00 00 	nopl   0x0(%rax)

00000000000012e0 <register_tm_clones>:
    12e0:	48 8d 3d 29 3d 00 00 	lea    0x3d29(%rip),%rdi        # 5010 <__TMC_END__>
    12e7:	48 8d 35 22 3d 00 00 	lea    0x3d22(%rip),%rsi        # 5010 <__TMC_END__>
    12ee:	48 29 fe             	sub    %rdi,%rsi
    12f1:	48 89 f0             	mov    %rsi,%rax
    12f4:	48 c1 ee 3f          	shr    $0x3f,%rsi
    12f8:	48 c1 f8 03          	sar    $0x3,%rax
    12fc:	48 01 c6             	add    %rax,%rsi
    12ff:	48 d1 fe             	sar    %rsi
    1302:	74 14                	je     1318 <register_tm_clones+0x38>
    1304:	48 8b 05 ed 3c 00 00 	mov    0x3ced(%rip),%rax        # 4ff8 <_ITM_registerTMCloneTable>
    130b:	48 85 c0             	test   %rax,%rax
    130e:	74 08                	je     1318 <register_tm_clones+0x38>
    1310:	ff e0                	jmpq   *%rax
    1312:	66 0f 1f 44 00 00    	nopw   0x0(%rax,%rax,1)
    1318:	c3                   	retq   
    1319:	0f 1f 80 00 00 00 00 	nopl   0x0(%rax)

0000000000001320 <__do_global_dtors_aux>:
    1320:	f3 0f 1e fa          	endbr64 
    1324:	80 3d fd 3c 00 00 00 	cmpb   $0x0,0x3cfd(%rip)        # 5028 <completed.8061>
    132b:	75 2b                	jne    1358 <__do_global_dtors_aux+0x38>
    132d:	55                   	push   %rbp
    132e:	48 83 3d aa 3c 00 00 	cmpq   $0x0,0x3caa(%rip)        # 4fe0 <__cxa_finalize@GLIBC_2.2.5>
    1335:	00 
    1336:	48 89 e5             	mov    %rsp,%rbp
    1339:	74 0c                	je     1347 <__do_global_dtors_aux+0x27>
    133b:	48 8b 3d c6 3c 00 00 	mov    0x3cc6(%rip),%rdi        # 5008 <__dso_handle>
    1342:	e8 99 fd ff ff       	callq  10e0 <__cxa_finalize@plt>
    1347:	e8 64 ff ff ff       	callq  12b0 <deregister_tm_clones>
    134c:	c6 05 d5 3c 00 00 01 	movb   $0x1,0x3cd5(%rip)        # 5028 <completed.8061>
    1353:	5d                   	pop    %rbp
    1354:	c3                   	retq   
    1355:	0f 1f 00             	nopl   (%rax)
    1358:	c3                   	retq   
    1359:	0f 1f 80 00 00 00 00 	nopl   0x0(%rax)

0000000000001360 <frame_dummy>:
    1360:	f3 0f 1e fa          	endbr64 
    1364:	e9 77 ff ff ff       	jmpq   12e0 <register_tm_clones>
    1369:	0f 1f 80 00 00 00 00 	nopl   0x0(%rax)

0000000000001370 <nfc_cb>:

int nfc_cb(void *pkt, u32 len) {
    1370:	f3 0f 1e fa          	endbr64 
    1374:	55                   	push   %rbp
    1375:	48 83 ec 50          	sub    $0x50,%rsp
  struct udphdr *udph = NULL;
  struct icmphdr *icmph = NULL;
  struct icmp6hdr *icmp6h = NULL;
  int i;
  eth = (struct ethhdr *)pkt;
  if (eth->h_proto == my_htons(ETH_P_IP)) { 
    1379:	48 8d 5f 0c          	lea    0xc(%rdi),%rbx
    137d:	4c 39 e3             	cmp    %r12,%rbx
    1380:	7c 17                	jl     1399 <nfc_cb+0x29>
    1382:	4c 39 fb             	cmp    %r15,%rbx
    1385:	7f 12                	jg     1399 <nfc_cb+0x29>
    1387:	4c 39 eb             	cmp    %r13,%rbx
    138a:	0f 8c 60 0d 00 00    	jl     20f0 <trap>
    1390:	4c 39 f3             	cmp    %r14,%rbx
    1393:	0f 8f 57 0d 00 00    	jg     20f0 <trap>
    1399:	0f b7 47 0c          	movzwl 0xc(%rdi),%eax
    139d:	66 83 f8 08          	cmp    $0x8,%ax
    13a1:	0f 84 79 0b 00 00    	je     1f20 <nfc_cb+0xbb0>
        break;
      case IPPROTO_ICMP:
        icmph = (struct icmphdr *)(pkt + sizeof(struct ethhdr) + sizeof(struct iphdr));
        break;
    }
  } else if (eth->h_proto == my_htons(ETH_P_IPV6)) {
    13a7:	66 3d 86 dd          	cmp    $0xdd86,%ax
    13ab:	0f 85 fe 09 00 00    	jne    1daf <nfc_cb+0xa3f>
    iph6 = (struct ipv6hdr *)(pkt + sizeof(struct ethhdr));
    switch (iph6->nexthdr) {
    13b1:	48 8d 5f 14          	lea    0x14(%rdi),%rbx
    13b5:	4c 39 e3             	cmp    %r12,%rbx
    13b8:	7c 17                	jl     13d1 <nfc_cb+0x61>
    13ba:	4c 39 fb             	cmp    %r15,%rbx
    13bd:	7f 12                	jg     13d1 <nfc_cb+0x61>
    13bf:	4c 39 eb             	cmp    %r13,%rbx
    13c2:	0f 8c 28 0d 00 00    	jl     20f0 <trap>
    13c8:	4c 39 f3             	cmp    %r14,%rbx
    13cb:	0f 8f 1f 0d 00 00    	jg     20f0 <trap>
    13d1:	0f b6 47 14          	movzbl 0x14(%rdi),%eax
    13d5:	3c 11                	cmp    $0x11,%al
    13d7:	0f 84 f1 0c 00 00    	je     20ce <nfc_cb+0xd5e>
    13dd:	0f 87 7d 0b 00 00    	ja     1f60 <nfc_cb+0xbf0>
    13e3:	3c 01                	cmp    $0x1,%al
    13e5:	0f 84 b5 0b 00 00    	je     1fa0 <nfc_cb+0xc30>
    13eb:	3c 06                	cmp    $0x6,%al
    13ed:	0f 85 55 0c 00 00    	jne    2048 <nfc_cb+0xcd8>
  struct icmp6hdr *icmp6h = NULL;
    13f3:	48 8d 5c 24 10       	lea    0x10(%rsp),%rbx
    13f8:	4c 39 e3             	cmp    %r12,%rbx
    13fb:	7c 17                	jl     1414 <nfc_cb+0xa4>
    13fd:	4c 39 fb             	cmp    %r15,%rbx
    1400:	7f 12                	jg     1414 <nfc_cb+0xa4>
    1402:	4c 39 eb             	cmp    %r13,%rbx
    1405:	0f 8c e5 0c 00 00    	jl     20f0 <trap>
    140b:	4c 39 f3             	cmp    %r14,%rbx
    140e:	0f 8f dc 0c 00 00    	jg     20f0 <trap>
    1414:	48 c7 44 24 10 00 00 	movq   $0x0,0x10(%rsp)
    141b:	00 00 
      case IPPROTO_TCP:
        tcph = (struct tcphdr *)(pkt + sizeof(struct ethhdr) + sizeof(struct ipv6hdr));
    141d:	48 8d 5f 36          	lea    0x36(%rdi),%rbx
    1421:	4c 39 e3             	cmp    %r12,%rbx
    1424:	7c 17                	jl     143d <nfc_cb+0xcd>
    1426:	4c 39 fb             	cmp    %r15,%rbx
    1429:	7f 12                	jg     143d <nfc_cb+0xcd>
    142b:	4c 39 eb             	cmp    %r13,%rbx
    142e:	0f 8c bc 0c 00 00    	jl     20f0 <trap>
    1434:	4c 39 f3             	cmp    %r14,%rbx
    1437:	0f 8f b3 0c 00 00    	jg     20f0 <trap>
    143d:	4c 8d 4f 36          	lea    0x36(%rdi),%r9
  struct udphdr *udph = NULL;
    1441:	45 31 c0             	xor    %r8d,%r8d
  struct iphdr *iph = NULL;
    1444:	45 31 d2             	xor    %r10d,%r10d
  struct icmphdr *icmph = NULL;
    1447:	48 8d 5c 24 08       	lea    0x8(%rsp),%rbx
    144c:	4c 39 e3             	cmp    %r12,%rbx
    144f:	7c 17                	jl     1468 <nfc_cb+0xf8>
    1451:	4c 39 fb             	cmp    %r15,%rbx
    1454:	7f 12                	jg     1468 <nfc_cb+0xf8>
    1456:	4c 39 eb             	cmp    %r13,%rbx
    1459:	0f 8c 91 0c 00 00    	jl     20f0 <trap>
    145f:	4c 39 f3             	cmp    %r14,%rbx
    1462:	0f 8f 88 0c 00 00    	jg     20f0 <trap>
    1468:	48 c7 44 24 08 00 00 	movq   $0x0,0x8(%rsp)
    146f:	00 00 
    1471:	0f 1f 80 00 00 00 00 	nopl   0x0(%rax)
  //   printf("source port : %d\n", ntohs(udph->source));
  //   printf("dest port : %d\n", ntohs(udph->dest));
  //   tmp++;
  // }

  for (i = 0; i < filter_num; i++) {
    1478:	48 8d 1d c1 3e 00 00 	lea    0x3ec1(%rip),%rbx        # 5340 <filter_num>
    147f:	4c 39 e3             	cmp    %r12,%rbx
    1482:	7c 17                	jl     149b <nfc_cb+0x12b>
    1484:	4c 39 fb             	cmp    %r15,%rbx
    1487:	7f 12                	jg     149b <nfc_cb+0x12b>
    1489:	4c 39 eb             	cmp    %r13,%rbx
    148c:	0f 8c 5e 0c 00 00    	jl     20f0 <trap>
    1492:	4c 39 f3             	cmp    %r14,%rbx
    1495:	0f 8f 55 0c 00 00    	jg     20f0 <trap>
    149b:	8b 3d 9f 3e 00 00    	mov    0x3e9f(%rip),%edi        # 5340 <filter_num>
    14a1:	85 ff                	test   %edi,%edi
    14a3:	0f 8e 06 09 00 00    	jle    1daf <nfc_cb+0xa3f>
    14a9:	4c 8d 1d 90 3b 00 00 	lea    0x3b90(%rip),%r11        # 5040 <filters>
    14b0:	4d 39 e3             	cmp    %r12,%r11
    14b3:	7c 17                	jl     14cc <nfc_cb+0x15c>
    14b5:	4d 39 fb             	cmp    %r15,%r11
    14b8:	7f 12                	jg     14cc <nfc_cb+0x15c>
    14ba:	4d 39 eb             	cmp    %r13,%r11
    14bd:	0f 8c 2d 0c 00 00    	jl     20f0 <trap>
    14c3:	4d 39 f3             	cmp    %r14,%r11
    14c6:	0f 8f 24 0c 00 00    	jg     20f0 <trap>
    14cc:	31 ed                	xor    %ebp,%ebp
    14ce:	4c 89 c6             	mov    %r8,%rsi
    14d1:	0f 1f 80 00 00 00 00 	nopl   0x0(%rax)
    struct filter filter = filters[i];
    14d8:	49 8d 1b             	lea    (%r11),%rbx
    14db:	4c 39 e3             	cmp    %r12,%rbx
    14de:	7c 17                	jl     14f7 <nfc_cb+0x187>
    14e0:	4c 39 fb             	cmp    %r15,%rbx
    14e3:	7f 12                	jg     14f7 <nfc_cb+0x187>
    14e5:	4c 39 eb             	cmp    %r13,%rbx
    14e8:	0f 8c 02 0c 00 00    	jl     20f0 <trap>
    14ee:	4c 39 f3             	cmp    %r14,%rbx
    14f1:	0f 8f f9 0b 00 00    	jg     20f0 <trap>
    14f7:	66 41 0f 6f 03       	movdqa (%r11),%xmm0
    14fc:	66 41 0f 6f 4b 10    	movdqa 0x10(%r11),%xmm1
    1502:	49 8d 5b 20          	lea    0x20(%r11),%rbx
    1506:	4c 39 e3             	cmp    %r12,%rbx
    1509:	7c 17                	jl     1522 <nfc_cb+0x1b2>
    150b:	4c 39 fb             	cmp    %r15,%rbx
    150e:	7f 12                	jg     1522 <nfc_cb+0x1b2>
    1510:	4c 39 eb             	cmp    %r13,%rbx
    1513:	0f 8c d7 0b 00 00    	jl     20f0 <trap>
    1519:	4c 39 f3             	cmp    %r14,%rbx
    151c:	0f 8f ce 0b 00 00    	jg     20f0 <trap>
    1522:	66 41 0f 6f 53 20    	movdqa 0x20(%r11),%xmm2
    1528:	48 8d 5c 24 20       	lea    0x20(%rsp),%rbx
    152d:	4c 39 e3             	cmp    %r12,%rbx
    1530:	7c 17                	jl     1549 <nfc_cb+0x1d9>
    1532:	4c 39 fb             	cmp    %r15,%rbx
    1535:	7f 12                	jg     1549 <nfc_cb+0x1d9>
    1537:	4c 39 eb             	cmp    %r13,%rbx
    153a:	0f 8c b0 0b 00 00    	jl     20f0 <trap>
    1540:	4c 39 f3             	cmp    %r14,%rbx
    1543:	0f 8f a7 0b 00 00    	jg     20f0 <trap>
    1549:	0f 29 44 24 20       	movaps %xmm0,0x20(%rsp)
    154e:	0f 29 4c 24 30       	movaps %xmm1,0x30(%rsp)
    1553:	48 8d 5c 24 40       	lea    0x40(%rsp),%rbx
    1558:	4c 39 e3             	cmp    %r12,%rbx
    155b:	7c 17                	jl     1574 <nfc_cb+0x204>
    155d:	4c 39 fb             	cmp    %r15,%rbx
    1560:	7f 12                	jg     1574 <nfc_cb+0x204>
    1562:	4c 39 eb             	cmp    %r13,%rbx
    1565:	0f 8c 85 0b 00 00    	jl     20f0 <trap>
    156b:	4c 39 f3             	cmp    %r14,%rbx
    156e:	0f 8f 7c 0b 00 00    	jg     20f0 <trap>
    1574:	0f 29 54 24 40       	movaps %xmm2,0x40(%rsp)
    if (iph != NULL) {
    1579:	4d 85 d2             	test   %r10,%r10
    157c:	0f 84 be 02 00 00    	je     1840 <nfc_cb+0x4d0>
    struct filter filter = filters[i];
    1582:	49 8d 1b             	lea    (%r11),%rbx
    1585:	4c 39 e3             	cmp    %r12,%rbx
    1588:	7c 17                	jl     15a1 <nfc_cb+0x231>
    158a:	4c 39 fb             	cmp    %r15,%rbx
    158d:	7f 12                	jg     15a1 <nfc_cb+0x231>
    158f:	4c 39 eb             	cmp    %r13,%rbx
    1592:	0f 8c 58 0b 00 00    	jl     20f0 <trap>
    1598:	4c 39 f3             	cmp    %r14,%rbx
    159b:	0f 8f 4f 0b 00 00    	jg     20f0 <trap>
    15a1:	41 8b 03             	mov    (%r11),%eax
      if (filter.ip_saddr && iph->saddr != filter.ip_saddr) //TODO エンディアン?
    15a4:	85 c0                	test   %eax,%eax
    15a6:	74 0a                	je     15b2 <nfc_cb+0x242>
    15a8:	41 39 42 0c          	cmp    %eax,0xc(%r10)
    15ac:	0f 85 ee 07 00 00    	jne    1da0 <nfc_cb+0xa30>
    struct filter filter = filters[i];
    15b2:	49 8d 5b 04          	lea    0x4(%r11),%rbx
    15b6:	4c 39 e3             	cmp    %r12,%rbx
    15b9:	7c 17                	jl     15d2 <nfc_cb+0x262>
    15bb:	4c 39 fb             	cmp    %r15,%rbx
    15be:	7f 12                	jg     15d2 <nfc_cb+0x262>
    15c0:	4c 39 eb             	cmp    %r13,%rbx
    15c3:	0f 8c 27 0b 00 00    	jl     20f0 <trap>
    15c9:	4c 39 f3             	cmp    %r14,%rbx
    15cc:	0f 8f 1e 0b 00 00    	jg     20f0 <trap>
    15d2:	41 8b 43 04          	mov    0x4(%r11),%eax
        continue;
      if (filter.ip_daddr && iph->daddr != filter.ip_daddr)
    15d6:	85 c0                	test   %eax,%eax
    15d8:	74 2a                	je     1604 <nfc_cb+0x294>
    15da:	49 8d 5a 10          	lea    0x10(%r10),%rbx
    15de:	4c 39 e3             	cmp    %r12,%rbx
    15e1:	7c 17                	jl     15fa <nfc_cb+0x28a>
    15e3:	4c 39 fb             	cmp    %r15,%rbx
    15e6:	7f 12                	jg     15fa <nfc_cb+0x28a>
    15e8:	4c 39 eb             	cmp    %r13,%rbx
    15eb:	0f 8c ff 0a 00 00    	jl     20f0 <trap>
    15f1:	4c 39 f3             	cmp    %r14,%rbx
    15f4:	0f 8f f6 0a 00 00    	jg     20f0 <trap>
    15fa:	41 39 42 10          	cmp    %eax,0x10(%r10)
    15fe:	0f 85 9c 07 00 00    	jne    1da0 <nfc_cb+0xa30>
        continue;
      // TODO ALLOWSINGLEIPV4V6 への対応
      if (filter.check_tos && iph->tos != filter.tos)
    1604:	48 8d 5c 24 28       	lea    0x28(%rsp),%rbx
    1609:	4c 39 e3             	cmp    %r12,%rbx
    160c:	7c 17                	jl     1625 <nfc_cb+0x2b5>
    160e:	4c 39 fb             	cmp    %r15,%rbx
    1611:	7f 12                	jg     1625 <nfc_cb+0x2b5>
    1613:	4c 39 eb             	cmp    %r13,%rbx
    1616:	0f 8c d4 0a 00 00    	jl     20f0 <trap>
    161c:	4c 39 f3             	cmp    %r14,%rbx
    161f:	0f 8f cb 0a 00 00    	jg     20f0 <trap>
    1625:	f6 44 24 28 01       	testb  $0x1,0x28(%rsp)
    162a:	74 4f                	je     167b <nfc_cb+0x30b>
    162c:	49 8d 5b 09          	lea    0x9(%r11),%rbx
    1630:	4c 39 e3             	cmp    %r12,%rbx
    1633:	7c 17                	jl     164c <nfc_cb+0x2dc>
    1635:	4c 39 fb             	cmp    %r15,%rbx
    1638:	7f 12                	jg     164c <nfc_cb+0x2dc>
    163a:	4c 39 eb             	cmp    %r13,%rbx
    163d:	0f 8c ad 0a 00 00    	jl     20f0 <trap>
    1643:	4c 39 f3             	cmp    %r14,%rbx
    1646:	0f 8f a4 0a 00 00    	jg     20f0 <trap>
    164c:	41 0f b6 43 09       	movzbl 0x9(%r11),%eax
    1651:	49 8d 5a 01          	lea    0x1(%r10),%rbx
    1655:	4c 39 e3             	cmp    %r12,%rbx
    1658:	7c 17                	jl     1671 <nfc_cb+0x301>
    165a:	4c 39 fb             	cmp    %r15,%rbx
    165d:	7f 12                	jg     1671 <nfc_cb+0x301>
    165f:	4c 39 eb             	cmp    %r13,%rbx
    1662:	0f 8c 88 0a 00 00    	jl     20f0 <trap>
    1668:	4c 39 f3             	cmp    %r14,%rbx
    166b:	0f 8f 7f 0a 00 00    	jg     20f0 <trap>
    1671:	41 38 42 01          	cmp    %al,0x1(%r10)
    1675:	0f 85 25 07 00 00    	jne    1da0 <nfc_cb+0xa30>
        continue;
      if (filter.check_min_ttl && iph->ttl < filter.min_ttl)
    167b:	48 8d 5c 24 2a       	lea    0x2a(%rsp),%rbx
    1680:	4c 39 e3             	cmp    %r12,%rbx
    1683:	7c 17                	jl     169c <nfc_cb+0x32c>
    1685:	4c 39 fb             	cmp    %r15,%rbx
    1688:	7f 12                	jg     169c <nfc_cb+0x32c>
    168a:	4c 39 eb             	cmp    %r13,%rbx
    168d:	0f 8c 5d 0a 00 00    	jl     20f0 <trap>
    1693:	4c 39 f3             	cmp    %r14,%rbx
    1696:	0f 8f 54 0a 00 00    	jg     20f0 <trap>
    169c:	f6 44 24 2a 01       	testb  $0x1,0x2a(%rsp)
    16a1:	74 4f                	je     16f2 <nfc_cb+0x382>
    16a3:	49 8d 5b 0b          	lea    0xb(%r11),%rbx
    16a7:	4c 39 e3             	cmp    %r12,%rbx
    16aa:	7c 17                	jl     16c3 <nfc_cb+0x353>
    16ac:	4c 39 fb             	cmp    %r15,%rbx
    16af:	7f 12                	jg     16c3 <nfc_cb+0x353>
    16b1:	4c 39 eb             	cmp    %r13,%rbx
    16b4:	0f 8c 36 0a 00 00    	jl     20f0 <trap>
    16ba:	4c 39 f3             	cmp    %r14,%rbx
    16bd:	0f 8f 2d 0a 00 00    	jg     20f0 <trap>
    16c3:	41 0f b6 43 0b       	movzbl 0xb(%r11),%eax
    16c8:	49 8d 5a 08          	lea    0x8(%r10),%rbx
    16cc:	4c 39 e3             	cmp    %r12,%rbx
    16cf:	7c 17                	jl     16e8 <nfc_cb+0x378>
    16d1:	4c 39 fb             	cmp    %r15,%rbx
    16d4:	7f 12                	jg     16e8 <nfc_cb+0x378>
    16d6:	4c 39 eb             	cmp    %r13,%rbx
    16d9:	0f 8c 11 0a 00 00    	jl     20f0 <trap>
    16df:	4c 39 f3             	cmp    %r14,%rbx
    16e2:	0f 8f 08 0a 00 00    	jg     20f0 <trap>
    16e8:	41 38 42 08          	cmp    %al,0x8(%r10)
    16ec:	0f 82 ae 06 00 00    	jb     1da0 <nfc_cb+0xa30>
        continue;
      if (filter.check_max_ttl && iph->ttl > filter.max_ttl)
    16f2:	f6 44 24 2c 01       	testb  $0x1,0x2c(%rsp)
    16f7:	74 4f                	je     1748 <nfc_cb+0x3d8>
    16f9:	49 8d 5a 08          	lea    0x8(%r10),%rbx
    16fd:	4c 39 e3             	cmp    %r12,%rbx
    1700:	7c 17                	jl     1719 <nfc_cb+0x3a9>
    1702:	4c 39 fb             	cmp    %r15,%rbx
    1705:	7f 12                	jg     1719 <nfc_cb+0x3a9>
    1707:	4c 39 eb             	cmp    %r13,%rbx
    170a:	0f 8c e0 09 00 00    	jl     20f0 <trap>
    1710:	4c 39 f3             	cmp    %r14,%rbx
    1713:	0f 8f d7 09 00 00    	jg     20f0 <trap>
    1719:	41 0f b6 42 08       	movzbl 0x8(%r10),%eax
    171e:	49 8d 5b 0d          	lea    0xd(%r11),%rbx
    1722:	4c 39 e3             	cmp    %r12,%rbx
    1725:	7c 17                	jl     173e <nfc_cb+0x3ce>
    1727:	4c 39 fb             	cmp    %r15,%rbx
    172a:	7f 12                	jg     173e <nfc_cb+0x3ce>
    172c:	4c 39 eb             	cmp    %r13,%rbx
    172f:	0f 8c bb 09 00 00    	jl     20f0 <trap>
    1735:	4c 39 f3             	cmp    %r14,%rbx
    1738:	0f 8f b2 09 00 00    	jg     20f0 <trap>
    173e:	41 38 43 0d          	cmp    %al,0xd(%r11)
    1742:	0f 82 58 06 00 00    	jb     1da0 <nfc_cb+0xa30>
        continue;
      if (filter.check_min_len && my_ntohs(iph->tot_len) < filter.min_len)
    1748:	48 8d 5c 24 2e       	lea    0x2e(%rsp),%rbx
    174d:	4c 39 e3             	cmp    %r12,%rbx
    1750:	7c 17                	jl     1769 <nfc_cb+0x3f9>
    1752:	4c 39 fb             	cmp    %r15,%rbx
    1755:	7f 12                	jg     1769 <nfc_cb+0x3f9>
    1757:	4c 39 eb             	cmp    %r13,%rbx
    175a:	0f 8c 90 09 00 00    	jl     20f0 <trap>
    1760:	4c 39 f3             	cmp    %r14,%rbx
    1763:	0f 8f 87 09 00 00    	jg     20f0 <trap>
    1769:	f6 44 24 2e 01       	testb  $0x1,0x2e(%rsp)
    176e:	74 54                	je     17c4 <nfc_cb+0x454>
    return ((netshort & 0xff) << 8) | ((netshort & 0xff00) >> 8);
    1770:	49 8d 5a 02          	lea    0x2(%r10),%rbx
    1774:	4c 39 e3             	cmp    %r12,%rbx
    1777:	7c 17                	jl     1790 <nfc_cb+0x420>
    1779:	4c 39 fb             	cmp    %r15,%rbx
    177c:	7f 12                	jg     1790 <nfc_cb+0x420>
    177e:	4c 39 eb             	cmp    %r13,%rbx
    1781:	0f 8c 69 09 00 00    	jl     20f0 <trap>
    1787:	4c 39 f3             	cmp    %r14,%rbx
    178a:	0f 8f 60 09 00 00    	jg     20f0 <trap>
    1790:	41 0f b7 42 02       	movzwl 0x2(%r10),%eax
    1795:	66 c1 c0 08          	rol    $0x8,%ax
      if (filter.check_min_len && my_ntohs(iph->tot_len) < filter.min_len)
    1799:	49 8d 5b 10          	lea    0x10(%r11),%rbx
    179d:	4c 39 e3             	cmp    %r12,%rbx
    17a0:	7c 17                	jl     17b9 <nfc_cb+0x449>
    17a2:	4c 39 fb             	cmp    %r15,%rbx
    17a5:	7f 12                	jg     17b9 <nfc_cb+0x449>
    17a7:	4c 39 eb             	cmp    %r13,%rbx
    17aa:	0f 8c 40 09 00 00    	jl     20f0 <trap>
    17b0:	4c 39 f3             	cmp    %r14,%rbx
    17b3:	0f 8f 37 09 00 00    	jg     20f0 <trap>
    17b9:	66 41 39 43 10       	cmp    %ax,0x10(%r11)
    17be:	0f 87 dc 05 00 00    	ja     1da0 <nfc_cb+0xa30>
        continue;
      if (filter.check_max_len && my_ntohs(iph->tot_len) > filter.max_len)
    17c4:	48 8d 5c 24 32       	lea    0x32(%rsp),%rbx
    17c9:	4c 39 e3             	cmp    %r12,%rbx
    17cc:	7c 17                	jl     17e5 <nfc_cb+0x475>
    17ce:	4c 39 fb             	cmp    %r15,%rbx
    17d1:	7f 12                	jg     17e5 <nfc_cb+0x475>
    17d3:	4c 39 eb             	cmp    %r13,%rbx
    17d6:	0f 8c 14 09 00 00    	jl     20f0 <trap>
    17dc:	4c 39 f3             	cmp    %r14,%rbx
    17df:	0f 8f 0b 09 00 00    	jg     20f0 <trap>
    17e5:	f6 44 24 32 01       	testb  $0x1,0x32(%rsp)
    17ea:	74 54                	je     1840 <nfc_cb+0x4d0>
    return ((netshort & 0xff) << 8) | ((netshort & 0xff00) >> 8);
    17ec:	49 8d 5a 02          	lea    0x2(%r10),%rbx
    17f0:	4c 39 e3             	cmp    %r12,%rbx
    17f3:	7c 17                	jl     180c <nfc_cb+0x49c>
    17f5:	4c 39 fb             	cmp    %r15,%rbx
    17f8:	7f 12                	jg     180c <nfc_cb+0x49c>
    17fa:	4c 39 eb             	cmp    %r13,%rbx
    17fd:	0f 8c ed 08 00 00    	jl     20f0 <trap>
    1803:	4c 39 f3             	cmp    %r14,%rbx
    1806:	0f 8f e4 08 00 00    	jg     20f0 <trap>
    180c:	41 0f b7 42 02       	movzwl 0x2(%r10),%eax
    1811:	66 c1 c0 08          	rol    $0x8,%ax
      if (filter.check_max_len && my_ntohs(iph->tot_len) > filter.max_len)
    1815:	49 8d 5b 14          	lea    0x14(%r11),%rbx
    1819:	4c 39 e3             	cmp    %r12,%rbx
    181c:	7c 17                	jl     1835 <nfc_cb+0x4c5>
    181e:	4c 39 fb             	cmp    %r15,%rbx
    1821:	7f 12                	jg     1835 <nfc_cb+0x4c5>
    1823:	4c 39 eb             	cmp    %r13,%rbx
    1826:	0f 8c c4 08 00 00    	jl     20f0 <trap>
    182c:	4c 39 f3             	cmp    %r14,%rbx
    182f:	0f 8f bb 08 00 00    	jg     20f0 <trap>
    1835:	66 41 39 43 14       	cmp    %ax,0x14(%r11)
    183a:	0f 82 60 05 00 00    	jb     1da0 <nfc_cb+0xa30>
        continue;
    } else if (iph6 != NULL) {
      ;
    }
    if (filter.tcpopts.enabled) {
    1840:	48 8d 5c 24 38       	lea    0x38(%rsp),%rbx
    1845:	4c 39 e3             	cmp    %r12,%rbx
    1848:	7c 17                	jl     1861 <nfc_cb+0x4f1>
    184a:	4c 39 fb             	cmp    %r15,%rbx
    184d:	7f 12                	jg     1861 <nfc_cb+0x4f1>
    184f:	4c 39 eb             	cmp    %r13,%rbx
    1852:	0f 8c 98 08 00 00    	jl     20f0 <trap>
    1858:	4c 39 f3             	cmp    %r14,%rbx
    185b:	0f 8f 8f 08 00 00    	jg     20f0 <trap>
    1861:	0f b6 44 24 38       	movzbl 0x38(%rsp),%eax
    1866:	a8 01                	test   $0x1,%al
    1868:	0f 84 52 05 00 00    	je     1dc0 <nfc_cb+0xa50>
      if (tcph == NULL) 
    186e:	4d 85 c9             	test   %r9,%r9
    1871:	0f 84 29 05 00 00    	je     1da0 <nfc_cb+0xa30>
        continue;
      if (filter.tcpopts.check_sport && my_htons(filter.tcpopts.sport) != tcph->source)
    1877:	a8 02                	test   $0x2,%al
    1879:	74 52                	je     18cd <nfc_cb+0x55d>
    return ((hostshort & 0xff) << 8) | ((hostshort & 0xff00) >> 8);
    187b:	49 8d 5b 1a          	lea    0x1a(%r11),%rbx
    187f:	4c 39 e3             	cmp    %r12,%rbx
    1882:	7c 17                	jl     189b <nfc_cb+0x52b>
    1884:	4c 39 fb             	cmp    %r15,%rbx
    1887:	7f 12                	jg     189b <nfc_cb+0x52b>
    1889:	4c 39 eb             	cmp    %r13,%rbx
    188c:	0f 8c 5e 08 00 00    	jl     20f0 <trap>
    1892:	4c 39 f3             	cmp    %r14,%rbx
    1895:	0f 8f 55 08 00 00    	jg     20f0 <trap>
    189b:	41 0f b7 43 1a       	movzwl 0x1a(%r11),%eax
    18a0:	66 c1 c0 08          	rol    $0x8,%ax
      if (filter.tcpopts.check_sport && my_htons(filter.tcpopts.sport) != tcph->source)
    18a4:	49 8d 19             	lea    (%r9),%rbx
    18a7:	4c 39 e3             	cmp    %r12,%rbx
    18aa:	7c 17                	jl     18c3 <nfc_cb+0x553>
    18ac:	4c 39 fb             	cmp    %r15,%rbx
    18af:	7f 12                	jg     18c3 <nfc_cb+0x553>
    18b1:	4c 39 eb             	cmp    %r13,%rbx
    18b4:	0f 8c 36 08 00 00    	jl     20f0 <trap>
    18ba:	4c 39 f3             	cmp    %r14,%rbx
    18bd:	0f 8f 2d 08 00 00    	jg     20f0 <trap>
    18c3:	66 41 39 01          	cmp    %ax,(%r9)
    18c7:	0f 85 d3 04 00 00    	jne    1da0 <nfc_cb+0xa30>
        continue;
      if (filter.tcpopts.check_dport && my_htons(filter.tcpopts.dport) != tcph->dest)
    18cd:	48 8d 5c 24 3c       	lea    0x3c(%rsp),%rbx
    18d2:	4c 39 e3             	cmp    %r12,%rbx
    18d5:	7c 17                	jl     18ee <nfc_cb+0x57e>
    18d7:	4c 39 fb             	cmp    %r15,%rbx
    18da:	7f 12                	jg     18ee <nfc_cb+0x57e>
    18dc:	4c 39 eb             	cmp    %r13,%rbx
    18df:	0f 8c 0b 08 00 00    	jl     20f0 <trap>
    18e5:	4c 39 f3             	cmp    %r14,%rbx
    18e8:	0f 8f 02 08 00 00    	jg     20f0 <trap>
    18ee:	f6 44 24 3c 01       	testb  $0x1,0x3c(%rsp)
    18f3:	74 54                	je     1949 <nfc_cb+0x5d9>
    return ((hostshort & 0xff) << 8) | ((hostshort & 0xff00) >> 8);
    18f5:	49 8d 5b 1e          	lea    0x1e(%r11),%rbx
    18f9:	4c 39 e3             	cmp    %r12,%rbx
    18fc:	7c 17                	jl     1915 <nfc_cb+0x5a5>
    18fe:	4c 39 fb             	cmp    %r15,%rbx
    1901:	7f 12                	jg     1915 <nfc_cb+0x5a5>
    1903:	4c 39 eb             	cmp    %r13,%rbx
    1906:	0f 8c e4 07 00 00    	jl     20f0 <trap>
    190c:	4c 39 f3             	cmp    %r14,%rbx
    190f:	0f 8f db 07 00 00    	jg     20f0 <trap>
    1915:	41 0f b7 43 1e       	movzwl 0x1e(%r11),%eax
    191a:	66 c1 c0 08          	rol    $0x8,%ax
      if (filter.tcpopts.check_dport && my_htons(filter.tcpopts.dport) != tcph->dest)
    191e:	49 8d 59 02          	lea    0x2(%r9),%rbx
    1922:	4c 39 e3             	cmp    %r12,%rbx
    1925:	7c 17                	jl     193e <nfc_cb+0x5ce>
    1927:	4c 39 fb             	cmp    %r15,%rbx
    192a:	7f 12                	jg     193e <nfc_cb+0x5ce>
    192c:	4c 39 eb             	cmp    %r13,%rbx
    192f:	0f 8c bb 07 00 00    	jl     20f0 <trap>
    1935:	4c 39 f3             	cmp    %r14,%rbx
    1938:	0f 8f b2 07 00 00    	jg     20f0 <trap>
    193e:	66 41 39 41 02       	cmp    %ax,0x2(%r9)
    1943:	0f 85 57 04 00 00    	jne    1da0 <nfc_cb+0xa30>
    struct filter filter = filters[i];
    1949:	49 8d 5b 20          	lea    0x20(%r11),%rbx
    194d:	4c 39 e3             	cmp    %r12,%rbx
    1950:	7c 17                	jl     1969 <nfc_cb+0x5f9>
    1952:	4c 39 fb             	cmp    %r15,%rbx
    1955:	7f 12                	jg     1969 <nfc_cb+0x5f9>
    1957:	4c 39 eb             	cmp    %r13,%rbx
    195a:	0f 8c 90 07 00 00    	jl     20f0 <trap>
    1960:	4c 39 f3             	cmp    %r14,%rbx
    1963:	0f 8f 87 07 00 00    	jg     20f0 <trap>
    1969:	41 0f b6 43 20       	movzbl 0x20(%r11),%eax
    196e:	89 c2                	mov    %eax,%edx
    1970:	89 c1                	mov    %eax,%ecx
    1972:	c0 ea 03             	shr    $0x3,%dl
    1975:	d0 e9                	shr    %cl
    1977:	83 e2 01             	and    $0x1,%edx
    197a:	83 e1 01             	and    $0x1,%ecx
    197d:	48 8d 5c 24 19       	lea    0x19(%rsp),%rbx
    1982:	4c 39 e3             	cmp    %r12,%rbx
    1985:	7c 17                	jl     199e <nfc_cb+0x62e>
    1987:	4c 39 fb             	cmp    %r15,%rbx
    198a:	7f 12                	jg     199e <nfc_cb+0x62e>
    198c:	4c 39 eb             	cmp    %r13,%rbx
    198f:	0f 8c 5b 07 00 00    	jl     20f0 <trap>
    1995:	4c 39 f3             	cmp    %r14,%rbx
    1998:	0f 8f 52 07 00 00    	jg     20f0 <trap>
    199e:	88 54 24 19          	mov    %dl,0x19(%rsp)
    19a2:	89 c2                	mov    %eax,%edx
    19a4:	c0 ea 05             	shr    $0x5,%dl
    19a7:	83 e2 01             	and    $0x1,%edx
    19aa:	88 54 24 1a          	mov    %dl,0x1a(%rsp)
    19ae:	89 c2                	mov    %eax,%edx
        continue;
      if (filter.tcpopts.check_urg && filter.tcpopts.urg != tcph->urg)
    19b0:	83 e0 aa             	and    $0xffffffaa,%eax
    struct filter filter = filters[i];
    19b3:	c0 ea 07             	shr    $0x7,%dl
    19b6:	48 8d 5c 24 1b       	lea    0x1b(%rsp),%rbx
    19bb:	4c 39 e3             	cmp    %r12,%rbx
    19be:	7c 17                	jl     19d7 <nfc_cb+0x667>
    19c0:	4c 39 fb             	cmp    %r15,%rbx
    19c3:	7f 12                	jg     19d7 <nfc_cb+0x667>
    19c5:	4c 39 eb             	cmp    %r13,%rbx
    19c8:	0f 8c 22 07 00 00    	jl     20f0 <trap>
    19ce:	4c 39 f3             	cmp    %r14,%rbx
    19d1:	0f 8f 19 07 00 00    	jg     20f0 <trap>
    19d7:	88 54 24 1b          	mov    %dl,0x1b(%rsp)
    19db:	49 8d 5b 21          	lea    0x21(%r11),%rbx
    19df:	4c 39 e3             	cmp    %r12,%rbx
    19e2:	7c 17                	jl     19fb <nfc_cb+0x68b>
    19e4:	4c 39 fb             	cmp    %r15,%rbx
    19e7:	7f 12                	jg     19fb <nfc_cb+0x68b>
    19e9:	4c 39 eb             	cmp    %r13,%rbx
    19ec:	0f 8c fe 06 00 00    	jl     20f0 <trap>
    19f2:	4c 39 f3             	cmp    %r14,%rbx
    19f5:	0f 8f f5 06 00 00    	jg     20f0 <trap>
    19fb:	41 0f b6 53 21       	movzbl 0x21(%r11),%edx
    1a00:	41 89 d0             	mov    %edx,%r8d
    1a03:	41 d0 e8             	shr    %r8b
    1a06:	41 83 e0 01          	and    $0x1,%r8d
    1a0a:	48 8d 5c 24 1c       	lea    0x1c(%rsp),%rbx
    1a0f:	4c 39 e3             	cmp    %r12,%rbx
    1a12:	7c 17                	jl     1a2b <nfc_cb+0x6bb>
    1a14:	4c 39 fb             	cmp    %r15,%rbx
    1a17:	7f 12                	jg     1a2b <nfc_cb+0x6bb>
    1a19:	4c 39 eb             	cmp    %r13,%rbx
    1a1c:	0f 8c ce 06 00 00    	jl     20f0 <trap>
    1a22:	4c 39 f3             	cmp    %r14,%rbx
    1a25:	0f 8f c5 06 00 00    	jg     20f0 <trap>
    1a2b:	44 88 44 24 1c       	mov    %r8b,0x1c(%rsp)
    1a30:	41 89 d0             	mov    %edx,%r8d
    1a33:	41 c0 e8 03          	shr    $0x3,%r8b
    1a37:	41 83 e0 01          	and    $0x1,%r8d
    1a3b:	44 88 44 24 1e       	mov    %r8b,0x1e(%rsp)
    1a40:	41 89 d0             	mov    %edx,%r8d
    1a43:	41 c0 e8 05          	shr    $0x5,%r8b
    1a47:	41 83 e0 01          	and    $0x1,%r8d
    1a4b:	48 8d 5c 24 1f       	lea    0x1f(%rsp),%rbx
    1a50:	4c 39 e3             	cmp    %r12,%rbx
    1a53:	7c 17                	jl     1a6c <nfc_cb+0x6fc>
    1a55:	4c 39 fb             	cmp    %r15,%rbx
    1a58:	7f 12                	jg     1a6c <nfc_cb+0x6fc>
    1a5a:	4c 39 eb             	cmp    %r13,%rbx
    1a5d:	0f 8c 8d 06 00 00    	jl     20f0 <trap>
    1a63:	4c 39 f3             	cmp    %r14,%rbx
    1a66:	0f 8f 84 06 00 00    	jg     20f0 <trap>
    1a6c:	44 88 44 24 1f       	mov    %r8b,0x1f(%rsp)
    1a71:	41 89 d0             	mov    %edx,%r8d
    1a74:	41 c0 e8 07          	shr    $0x7,%r8b
    1a78:	48 8d 5c 24 1d       	lea    0x1d(%rsp),%rbx
    1a7d:	4c 39 e3             	cmp    %r12,%rbx
    1a80:	7c 17                	jl     1a99 <nfc_cb+0x729>
    1a82:	4c 39 fb             	cmp    %r15,%rbx
    1a85:	7f 12                	jg     1a99 <nfc_cb+0x729>
    1a87:	4c 39 eb             	cmp    %r13,%rbx
    1a8a:	0f 8c 60 06 00 00    	jl     20f0 <trap>
    1a90:	4c 39 f3             	cmp    %r14,%rbx
    1a93:	0f 8f 57 06 00 00    	jg     20f0 <trap>
    1a99:	44 88 44 24 1d       	mov    %r8b,0x1d(%rsp)
      if (filter.tcpopts.check_urg && filter.tcpopts.urg != tcph->urg)
    1a9e:	48 8d 5c 24 40       	lea    0x40(%rsp),%rbx
    1aa3:	4c 39 e3             	cmp    %r12,%rbx
    1aa6:	7c 17                	jl     1abf <nfc_cb+0x74f>
    1aa8:	4c 39 fb             	cmp    %r15,%rbx
    1aab:	7f 12                	jg     1abf <nfc_cb+0x74f>
    1aad:	4c 39 eb             	cmp    %r13,%rbx
    1ab0:	0f 8c 3a 06 00 00    	jl     20f0 <trap>
    1ab6:	4c 39 f3             	cmp    %r14,%rbx
    1ab9:	0f 8f 31 06 00 00    	jg     20f0 <trap>
    1abf:	44 0f b6 44 24 40    	movzbl 0x40(%rsp),%r8d
    1ac5:	41 83 e0 55          	and    $0x55,%r8d
    1ac9:	44 09 c0             	or     %r8d,%eax
    1acc:	48 8d 5c 24 40       	lea    0x40(%rsp),%rbx
    1ad1:	4c 39 e3             	cmp    %r12,%rbx
    1ad4:	7c 17                	jl     1aed <nfc_cb+0x77d>
    1ad6:	4c 39 fb             	cmp    %r15,%rbx
    1ad9:	7f 12                	jg     1aed <nfc_cb+0x77d>
    1adb:	4c 39 eb             	cmp    %r13,%rbx
    1ade:	0f 8c 0c 06 00 00    	jl     20f0 <trap>
    1ae4:	4c 39 f3             	cmp    %r14,%rbx
    1ae7:	0f 8f 03 06 00 00    	jg     20f0 <trap>
    1aed:	88 44 24 40          	mov    %al,0x40(%rsp)
    1af1:	a8 01                	test   $0x1,%al
    1af3:	74 36                	je     1b2b <nfc_cb+0x7bb>
    1af5:	49 8d 59 0d          	lea    0xd(%r9),%rbx
    1af9:	4c 39 e3             	cmp    %r12,%rbx
    1afc:	7c 17                	jl     1b15 <nfc_cb+0x7a5>
    1afe:	4c 39 fb             	cmp    %r15,%rbx
    1b01:	7f 12                	jg     1b15 <nfc_cb+0x7a5>
    1b03:	4c 39 eb             	cmp    %r13,%rbx
    1b06:	0f 8c e4 05 00 00    	jl     20f0 <trap>
    1b0c:	4c 39 f3             	cmp    %r14,%rbx
    1b0f:	0f 8f db 05 00 00    	jg     20f0 <trap>
    1b15:	45 0f b6 41 0d       	movzbl 0xd(%r9),%r8d
    1b1a:	41 c0 e8 05          	shr    $0x5,%r8b
    1b1e:	41 83 e0 01          	and    $0x1,%r8d
    1b22:	41 38 c8             	cmp    %cl,%r8b
    1b25:	0f 85 75 02 00 00    	jne    1da0 <nfc_cb+0xa30>
        continue;
      if (filter.tcpopts.check_ack && filter.tcpopts.ack != tcph->ack)
    1b2b:	a8 04                	test   $0x4,%al
    1b2d:	74 56                	je     1b85 <nfc_cb+0x815>
    1b2f:	49 8d 59 0d          	lea    0xd(%r9),%rbx
    1b33:	4c 39 e3             	cmp    %r12,%rbx
    1b36:	7c 17                	jl     1b4f <nfc_cb+0x7df>
    1b38:	4c 39 fb             	cmp    %r15,%rbx
    1b3b:	7f 12                	jg     1b4f <nfc_cb+0x7df>
    1b3d:	4c 39 eb             	cmp    %r13,%rbx
    1b40:	0f 8c aa 05 00 00    	jl     20f0 <trap>
    1b46:	4c 39 f3             	cmp    %r14,%rbx
    1b49:	0f 8f a1 05 00 00    	jg     20f0 <trap>
    1b4f:	41 0f b6 49 0d       	movzbl 0xd(%r9),%ecx
    1b54:	c0 e9 04             	shr    $0x4,%cl
    1b57:	83 e1 01             	and    $0x1,%ecx
    1b5a:	48 8d 5c 24 19       	lea    0x19(%rsp),%rbx
    1b5f:	4c 39 e3             	cmp    %r12,%rbx
    1b62:	7c 17                	jl     1b7b <nfc_cb+0x80b>
    1b64:	4c 39 fb             	cmp    %r15,%rbx
    1b67:	7f 12                	jg     1b7b <nfc_cb+0x80b>
    1b69:	4c 39 eb             	cmp    %r13,%rbx
    1b6c:	0f 8c 7e 05 00 00    	jl     20f0 <trap>
    1b72:	4c 39 f3             	cmp    %r14,%rbx
    1b75:	0f 8f 75 05 00 00    	jg     20f0 <trap>
    1b7b:	3a 4c 24 19          	cmp    0x19(%rsp),%cl
    1b7f:	0f 85 1b 02 00 00    	jne    1da0 <nfc_cb+0xa30>
        continue;
      if (filter.tcpopts.check_rst && filter.tcpopts.rst != tcph->rst)
    1b85:	a8 10                	test   $0x10,%al
    1b87:	74 56                	je     1bdf <nfc_cb+0x86f>
    1b89:	49 8d 59 0d          	lea    0xd(%r9),%rbx
    1b8d:	4c 39 e3             	cmp    %r12,%rbx
    1b90:	7c 17                	jl     1ba9 <nfc_cb+0x839>
    1b92:	4c 39 fb             	cmp    %r15,%rbx
    1b95:	7f 12                	jg     1ba9 <nfc_cb+0x839>
    1b97:	4c 39 eb             	cmp    %r13,%rbx
    1b9a:	0f 8c 50 05 00 00    	jl     20f0 <trap>
    1ba0:	4c 39 f3             	cmp    %r14,%rbx
    1ba3:	0f 8f 47 05 00 00    	jg     20f0 <trap>
    1ba9:	41 0f b6 49 0d       	movzbl 0xd(%r9),%ecx
    1bae:	c0 e9 02             	shr    $0x2,%cl
    1bb1:	83 e1 01             	and    $0x1,%ecx
    1bb4:	48 8d 5c 24 1a       	lea    0x1a(%rsp),%rbx
    1bb9:	4c 39 e3             	cmp    %r12,%rbx
    1bbc:	7c 17                	jl     1bd5 <nfc_cb+0x865>
    1bbe:	4c 39 fb             	cmp    %r15,%rbx
    1bc1:	7f 12                	jg     1bd5 <nfc_cb+0x865>
    1bc3:	4c 39 eb             	cmp    %r13,%rbx
    1bc6:	0f 8c 24 05 00 00    	jl     20f0 <trap>
    1bcc:	4c 39 f3             	cmp    %r14,%rbx
    1bcf:	0f 8f 1b 05 00 00    	jg     20f0 <trap>
    1bd5:	3a 4c 24 1a          	cmp    0x1a(%rsp),%cl
    1bd9:	0f 85 c1 01 00 00    	jne    1da0 <nfc_cb+0xa30>
        continue;
      if (filter.tcpopts.check_psh && filter.tcpopts.psh != tcph->psh)
    1bdf:	a8 40                	test   $0x40,%al
    1be1:	74 56                	je     1c39 <nfc_cb+0x8c9>
    1be3:	49 8d 59 0d          	lea    0xd(%r9),%rbx
    1be7:	4c 39 e3             	cmp    %r12,%rbx
    1bea:	7c 17                	jl     1c03 <nfc_cb+0x893>
    1bec:	4c 39 fb             	cmp    %r15,%rbx
    1bef:	7f 12                	jg     1c03 <nfc_cb+0x893>
    1bf1:	4c 39 eb             	cmp    %r13,%rbx
    1bf4:	0f 8c f6 04 00 00    	jl     20f0 <trap>
    1bfa:	4c 39 f3             	cmp    %r14,%rbx
    1bfd:	0f 8f ed 04 00 00    	jg     20f0 <trap>
    1c03:	41 0f b6 41 0d       	movzbl 0xd(%r9),%eax
    1c08:	c0 e8 03             	shr    $0x3,%al
    1c0b:	83 e0 01             	and    $0x1,%eax
    1c0e:	48 8d 5c 24 1b       	lea    0x1b(%rsp),%rbx
    1c13:	4c 39 e3             	cmp    %r12,%rbx
    1c16:	7c 17                	jl     1c2f <nfc_cb+0x8bf>
    1c18:	4c 39 fb             	cmp    %r15,%rbx
    1c1b:	7f 12                	jg     1c2f <nfc_cb+0x8bf>
    1c1d:	4c 39 eb             	cmp    %r13,%rbx
    1c20:	0f 8c ca 04 00 00    	jl     20f0 <trap>
    1c26:	4c 39 f3             	cmp    %r14,%rbx
    1c29:	0f 8f c1 04 00 00    	jg     20f0 <trap>
    1c2f:	3a 44 24 1b          	cmp    0x1b(%rsp),%al
    1c33:	0f 85 67 01 00 00    	jne    1da0 <nfc_cb+0xa30>
        continue;
      if (filter.tcpopts.check_syn && filter.tcpopts.syn != tcph->syn)
    1c39:	48 8d 5c 24 41       	lea    0x41(%rsp),%rbx
    1c3e:	4c 39 e3             	cmp    %r12,%rbx
    1c41:	7c 17                	jl     1c5a <nfc_cb+0x8ea>
    1c43:	4c 39 fb             	cmp    %r15,%rbx
    1c46:	7f 12                	jg     1c5a <nfc_cb+0x8ea>
    1c48:	4c 39 eb             	cmp    %r13,%rbx
    1c4b:	0f 8c 9f 04 00 00    	jl     20f0 <trap>
    1c51:	4c 39 f3             	cmp    %r14,%rbx
    1c54:	0f 8f 96 04 00 00    	jg     20f0 <trap>
    1c5a:	0f b6 44 24 41       	movzbl 0x41(%rsp),%eax
    1c5f:	83 e2 aa             	and    $0xffffffaa,%edx
    1c62:	83 e0 55             	and    $0x55,%eax
    1c65:	09 c2                	or     %eax,%edx
    1c67:	48 8d 5c 24 41       	lea    0x41(%rsp),%rbx
    1c6c:	4c 39 e3             	cmp    %r12,%rbx
    1c6f:	7c 17                	jl     1c88 <nfc_cb+0x918>
    1c71:	4c 39 fb             	cmp    %r15,%rbx
    1c74:	7f 12                	jg     1c88 <nfc_cb+0x918>
    1c76:	4c 39 eb             	cmp    %r13,%rbx
    1c79:	0f 8c 71 04 00 00    	jl     20f0 <trap>
    1c7f:	4c 39 f3             	cmp    %r14,%rbx
    1c82:	0f 8f 68 04 00 00    	jg     20f0 <trap>
    1c88:	88 54 24 41          	mov    %dl,0x41(%rsp)
    1c8c:	f6 c2 01             	test   $0x1,%dl
    1c8f:	0f 85 2b 03 00 00    	jne    1fc0 <nfc_cb+0xc50>
        continue;
      if (filter.tcpopts.check_fin && filter.tcpopts.fin != tcph->fin)
    1c95:	f6 c2 04             	test   $0x4,%dl
    1c98:	74 53                	je     1ced <nfc_cb+0x97d>
    1c9a:	49 8d 59 0d          	lea    0xd(%r9),%rbx
    1c9e:	4c 39 e3             	cmp    %r12,%rbx
    1ca1:	7c 17                	jl     1cba <nfc_cb+0x94a>
    1ca3:	4c 39 fb             	cmp    %r15,%rbx
    1ca6:	7f 12                	jg     1cba <nfc_cb+0x94a>
    1ca8:	4c 39 eb             	cmp    %r13,%rbx
    1cab:	0f 8c 3f 04 00 00    	jl     20f0 <trap>
    1cb1:	4c 39 f3             	cmp    %r14,%rbx
    1cb4:	0f 8f 36 04 00 00    	jg     20f0 <trap>
    1cba:	41 0f b6 41 0d       	movzbl 0xd(%r9),%eax
    1cbf:	83 e0 01             	and    $0x1,%eax
    1cc2:	48 8d 5c 24 1e       	lea    0x1e(%rsp),%rbx
    1cc7:	4c 39 e3             	cmp    %r12,%rbx
    1cca:	7c 17                	jl     1ce3 <nfc_cb+0x973>
    1ccc:	4c 39 fb             	cmp    %r15,%rbx
    1ccf:	7f 12                	jg     1ce3 <nfc_cb+0x973>
    1cd1:	4c 39 eb             	cmp    %r13,%rbx
    1cd4:	0f 8c 16 04 00 00    	jl     20f0 <trap>
    1cda:	4c 39 f3             	cmp    %r14,%rbx
    1cdd:	0f 8f 0d 04 00 00    	jg     20f0 <trap>
    1ce3:	3a 44 24 1e          	cmp    0x1e(%rsp),%al
    1ce7:	0f 85 b3 00 00 00    	jne    1da0 <nfc_cb+0xa30>
        continue;
      if (filter.tcpopts.check_ece && filter.tcpopts.ece != tcph->ece)
    1ced:	f6 c2 10             	test   $0x10,%dl
    1cf0:	74 52                	je     1d44 <nfc_cb+0x9d4>
    1cf2:	49 8d 59 0d          	lea    0xd(%r9),%rbx
    1cf6:	4c 39 e3             	cmp    %r12,%rbx
    1cf9:	7c 17                	jl     1d12 <nfc_cb+0x9a2>
    1cfb:	4c 39 fb             	cmp    %r15,%rbx
    1cfe:	7f 12                	jg     1d12 <nfc_cb+0x9a2>
    1d00:	4c 39 eb             	cmp    %r13,%rbx
    1d03:	0f 8c e7 03 00 00    	jl     20f0 <trap>
    1d09:	4c 39 f3             	cmp    %r14,%rbx
    1d0c:	0f 8f de 03 00 00    	jg     20f0 <trap>
    1d12:	41 0f b6 41 0d       	movzbl 0xd(%r9),%eax
    1d17:	c0 e8 06             	shr    $0x6,%al
    1d1a:	83 e0 01             	and    $0x1,%eax
    1d1d:	48 8d 5c 24 1f       	lea    0x1f(%rsp),%rbx
    1d22:	4c 39 e3             	cmp    %r12,%rbx
    1d25:	7c 17                	jl     1d3e <nfc_cb+0x9ce>
    1d27:	4c 39 fb             	cmp    %r15,%rbx
    1d2a:	7f 12                	jg     1d3e <nfc_cb+0x9ce>
    1d2c:	4c 39 eb             	cmp    %r13,%rbx
    1d2f:	0f 8c bb 03 00 00    	jl     20f0 <trap>
    1d35:	4c 39 f3             	cmp    %r14,%rbx
    1d38:	0f 8f b2 03 00 00    	jg     20f0 <trap>
    1d3e:	3a 44 24 1f          	cmp    0x1f(%rsp),%al
    1d42:	75 5c                	jne    1da0 <nfc_cb+0xa30>
        continue;
      if (filter.tcpopts.check_cwr && filter.tcpopts.cwr != tcph->cwr)
    1d44:	83 e2 40             	and    $0x40,%edx
    1d47:	0f 84 6b 01 00 00    	je     1eb8 <nfc_cb+0xb48>
    1d4d:	49 8d 59 0d          	lea    0xd(%r9),%rbx
    1d51:	4c 39 e3             	cmp    %r12,%rbx
    1d54:	7c 17                	jl     1d6d <nfc_cb+0x9fd>
    1d56:	4c 39 fb             	cmp    %r15,%rbx
    1d59:	7f 12                	jg     1d6d <nfc_cb+0x9fd>
    1d5b:	4c 39 eb             	cmp    %r13,%rbx
    1d5e:	0f 8c 8c 03 00 00    	jl     20f0 <trap>
    1d64:	4c 39 f3             	cmp    %r14,%rbx
    1d67:	0f 8f 83 03 00 00    	jg     20f0 <trap>
    1d6d:	41 0f b6 41 0d       	movzbl 0xd(%r9),%eax
    1d72:	c0 e8 07             	shr    $0x7,%al
    1d75:	48 8d 5c 24 1d       	lea    0x1d(%rsp),%rbx
    1d7a:	4c 39 e3             	cmp    %r12,%rbx
    1d7d:	7c 17                	jl     1d96 <nfc_cb+0xa26>
    1d7f:	4c 39 fb             	cmp    %r15,%rbx
    1d82:	7f 12                	jg     1d96 <nfc_cb+0xa26>
    1d84:	4c 39 eb             	cmp    %r13,%rbx
    1d87:	0f 8c 63 03 00 00    	jl     20f0 <trap>
    1d8d:	4c 39 f3             	cmp    %r14,%rbx
    1d90:	0f 8f 5a 03 00 00    	jg     20f0 <trap>
    1d96:	3a 44 24 1d          	cmp    0x1d(%rsp),%al
    1d9a:	0f 84 18 01 00 00    	je     1eb8 <nfc_cb+0xb48>
  for (i = 0; i < filter_num; i++) {
    1da0:	83 c5 01             	add    $0x1,%ebp
    1da3:	49 83 c3 30          	add    $0x30,%r11
    1da7:	39 fd                	cmp    %edi,%ebp
    1da9:	0f 85 29 f7 ff ff    	jne    14d8 <nfc_cb+0x168>
  // if (tmp < 100) {
  //   printf("PASS\n");
  //   tmp++;
  // }
  return PASS;
}
    1daf:	48 83 c4 50          	add    $0x50,%rsp
    return PASS;
    1db3:	31 c0                	xor    %eax,%eax
}
    1db5:	5d                   	pop    %rbp
    1db6:	c3                   	retq   
    1db7:	66 0f 1f 84 00 00 00 	nopw   0x0(%rax,%rax,1)
    1dbe:	00 00 
    } else if (filter.udpopts.enabled) {
    1dc0:	48 8d 5c 24 44       	lea    0x44(%rsp),%rbx
    1dc5:	4c 39 e3             	cmp    %r12,%rbx
    1dc8:	7c 17                	jl     1de1 <nfc_cb+0xa71>
    1dca:	4c 39 fb             	cmp    %r15,%rbx
    1dcd:	7f 12                	jg     1de1 <nfc_cb+0xa71>
    1dcf:	4c 39 eb             	cmp    %r13,%rbx
    1dd2:	0f 8c 18 03 00 00    	jl     20f0 <trap>
    1dd8:	4c 39 f3             	cmp    %r14,%rbx
    1ddb:	0f 8f 0f 03 00 00    	jg     20f0 <trap>
    1de1:	0f b6 44 24 44       	movzbl 0x44(%rsp),%eax
    1de6:	a8 01                	test   $0x1,%al
    1de8:	0f 84 da 00 00 00    	je     1ec8 <nfc_cb+0xb58>
      if (udph == NULL)
    1dee:	48 85 f6             	test   %rsi,%rsi
    1df1:	74 ad                	je     1da0 <nfc_cb+0xa30>
      if (filter.udpopts.check_sport && my_htons(filter.udpopts.sport) != udph->source)
    1df3:	a8 02                	test   $0x2,%al
    1df5:	74 35                	je     1e2c <nfc_cb+0xabc>
    return ((hostshort & 0xff) << 8) | ((hostshort & 0xff00) >> 8);
    1df7:	49 8d 5b 26          	lea    0x26(%r11),%rbx
    1dfb:	41 0f b7 43 26       	movzwl 0x26(%r11),%eax
    1e00:	66 c1 c0 08          	rol    $0x8,%ax
      if (filter.udpopts.check_sport && my_htons(filter.udpopts.sport) != udph->source)
    1e04:	48 8d 1e             	lea    (%rsi),%rbx
    1e07:	4c 39 e3             	cmp    %r12,%rbx
    1e0a:	7c 17                	jl     1e23 <nfc_cb+0xab3>
    1e0c:	4c 39 fb             	cmp    %r15,%rbx
    1e0f:	7f 12                	jg     1e23 <nfc_cb+0xab3>
    1e11:	4c 39 eb             	cmp    %r13,%rbx
    1e14:	0f 8c d6 02 00 00    	jl     20f0 <trap>
    1e1a:	4c 39 f3             	cmp    %r14,%rbx
    1e1d:	0f 8f cd 02 00 00    	jg     20f0 <trap>
    1e23:	66 39 06             	cmp    %ax,(%rsi)
    1e26:	0f 85 74 ff ff ff    	jne    1da0 <nfc_cb+0xa30>
      if (filter.udpopts.check_dport && my_htons(filter.udpopts.dport) != udph->dest)
    1e2c:	48 8d 5c 24 48       	lea    0x48(%rsp),%rbx
    1e31:	4c 39 e3             	cmp    %r12,%rbx
    1e34:	7c 17                	jl     1e4d <nfc_cb+0xadd>
    1e36:	4c 39 fb             	cmp    %r15,%rbx
    1e39:	7f 12                	jg     1e4d <nfc_cb+0xadd>
    1e3b:	4c 39 eb             	cmp    %r13,%rbx
    1e3e:	0f 8c ac 02 00 00    	jl     20f0 <trap>
    1e44:	4c 39 f3             	cmp    %r14,%rbx
    1e47:	0f 8f a3 02 00 00    	jg     20f0 <trap>
    1e4d:	f6 44 24 48 01       	testb  $0x1,0x48(%rsp)
    1e52:	74 57                	je     1eab <nfc_cb+0xb3b>
    return ((hostshort & 0xff) << 8) | ((hostshort & 0xff00) >> 8);
    1e54:	49 8d 5b 2a          	lea    0x2a(%r11),%rbx
    1e58:	4c 39 e3             	cmp    %r12,%rbx
    1e5b:	7c 17                	jl     1e74 <nfc_cb+0xb04>
    1e5d:	4c 39 fb             	cmp    %r15,%rbx
    1e60:	7f 12                	jg     1e74 <nfc_cb+0xb04>
    1e62:	4c 39 eb             	cmp    %r13,%rbx
    1e65:	0f 8c 85 02 00 00    	jl     20f0 <trap>
    1e6b:	4c 39 f3             	cmp    %r14,%rbx
    1e6e:	0f 8f 7c 02 00 00    	jg     20f0 <trap>
    1e74:	49 8d 5b 2a          	lea    0x2a(%r11),%rbx
    1e78:	41 0f b7 43 2a       	movzwl 0x2a(%r11),%eax
    1e7d:	66 c1 c0 08          	rol    $0x8,%ax
      if (filter.udpopts.check_dport && my_htons(filter.udpopts.dport) != udph->dest)
    1e81:	48 8d 5e 02          	lea    0x2(%rsi),%rbx
    1e85:	4c 39 e3             	cmp    %r12,%rbx
    1e88:	7c 17                	jl     1ea1 <nfc_cb+0xb31>
    1e8a:	4c 39 fb             	cmp    %r15,%rbx
    1e8d:	7f 12                	jg     1ea1 <nfc_cb+0xb31>
    1e8f:	4c 39 eb             	cmp    %r13,%rbx
    1e92:	0f 8c 58 02 00 00    	jl     20f0 <trap>
    1e98:	4c 39 f3             	cmp    %r14,%rbx
    1e9b:	0f 8f 4f 02 00 00    	jg     20f0 <trap>
    1ea1:	66 39 46 02          	cmp    %ax,0x2(%rsi)
    1ea5:	0f 85 f5 fe ff ff    	jne    1da0 <nfc_cb+0xa30>
      if (tmp1 < 10) {
    1eab:	83 3d 7a 31 00 00 09 	cmpl   $0x9,0x317a(%rip)        # 502c <tmp1>
    1eb2:	0f 8e 28 01 00 00    	jle    1fe0 <nfc_cb+0xc70>
}
    1eb8:	48 83 c4 50          	add    $0x50,%rsp
    return DROP;
    1ebc:	b8 01 00 00 00       	mov    $0x1,%eax
}
    1ec1:	5d                   	pop    %rbp
    1ec2:	c3                   	retq   
    1ec3:	0f 1f 44 00 00       	nopl   0x0(%rax,%rax,1)
    } else if (filter.icmpopts.enabled) {
    1ec8:	0f b6 44 24 4c       	movzbl 0x4c(%rsp),%eax
    1ecd:	a8 01                	test   $0x1,%al
    1ecf:	0f 84 cb fe ff ff    	je     1da0 <nfc_cb+0xa30>
      if (icmph != NULL) {
    1ed5:	4c 8b 44 24 08       	mov    0x8(%rsp),%r8
    struct filter filter = filters[i];
    1eda:	41 0f b6 4b 2d       	movzbl 0x2d(%r11),%ecx
    1edf:	41 0f b6 53 2f       	movzbl 0x2f(%r11),%edx
      if (icmph != NULL) {
    1ee4:	4d 85 c0             	test   %r8,%r8
    1ee7:	0f 84 1b 01 00 00    	je     2008 <nfc_cb+0xc98>
        if (filter.icmpopts.check_code && filter.icmpopts.code != icmph->code)
    1eed:	a8 02                	test   $0x2,%al
    1eef:	0f 85 9b 00 00 00    	jne    1f90 <nfc_cb+0xc20>
        if (filter.icmpopts.check_type && filter.icmpopts.type != icmph->type)
    1ef5:	f6 44 24 4e 01       	testb  $0x1,0x4e(%rsp)
    1efa:	74 bc                	je     1eb8 <nfc_cb+0xb48>
    1efc:	48 8b 44 24 08       	mov    0x8(%rsp),%rax
    1f01:	38 10                	cmp    %dl,(%rax)
    1f03:	74 b3                	je     1eb8 <nfc_cb+0xb48>
  for (i = 0; i < filter_num; i++) {
    1f05:	83 c5 01             	add    $0x1,%ebp
    1f08:	49 83 c3 30          	add    $0x30,%r11
    1f0c:	39 fd                	cmp    %edi,%ebp
    1f0e:	0f 85 c4 f5 ff ff    	jne    14d8 <nfc_cb+0x168>
    1f14:	e9 96 fe ff ff       	jmpq   1daf <nfc_cb+0xa3f>
    1f19:	0f 1f 80 00 00 00 00 	nopl   0x0(%rax)
    switch (iph->protocol) {
    1f20:	0f b6 47 17          	movzbl 0x17(%rdi),%eax
    iph = (struct iphdr *)(pkt + sizeof(struct ethhdr));
    1f24:	4c 8d 57 0e          	lea    0xe(%rdi),%r10
    switch (iph->protocol) {
    1f28:	3c 06                	cmp    $0x6,%al
    1f2a:	0f 84 80 01 00 00    	je     20b0 <nfc_cb+0xd40>
    1f30:	3c 11                	cmp    $0x11,%al
    1f32:	0f 84 58 01 00 00    	je     2090 <nfc_cb+0xd20>
    1f38:	3c 01                	cmp    $0x1,%al
    1f3a:	0f 84 30 01 00 00    	je     2070 <nfc_cb+0xd00>
    1f40:	48 c7 44 24 10 00 00 	movq   $0x0,0x10(%rsp)
    1f47:	00 00 
    1f49:	45 31 c0             	xor    %r8d,%r8d
    1f4c:	45 31 c9             	xor    %r9d,%r9d
    1f4f:	48 c7 44 24 08 00 00 	movq   $0x0,0x8(%rsp)
    1f56:	00 00 
    1f58:	e9 1b f5 ff ff       	jmpq   1478 <nfc_cb+0x108>
    1f5d:	0f 1f 00             	nopl   (%rax)
    switch (iph6->nexthdr) {
    1f60:	3c 3a                	cmp    $0x3a,%al
    1f62:	0f 85 e0 00 00 00    	jne    2048 <nfc_cb+0xcd8>
        icmp6h = (struct icmp6hdr *)(pkt + sizeof(struct ethhdr) + sizeof(struct ipv6hdr));
    1f68:	48 8d 47 36          	lea    0x36(%rdi),%rax
  struct udphdr *udph = NULL;
    1f6c:	45 31 c0             	xor    %r8d,%r8d
  struct tcphdr *tcph = NULL;
    1f6f:	45 31 c9             	xor    %r9d,%r9d
  struct iphdr *iph = NULL;
    1f72:	45 31 d2             	xor    %r10d,%r10d
        icmp6h = (struct icmp6hdr *)(pkt + sizeof(struct ethhdr) + sizeof(struct ipv6hdr));
    1f75:	48 89 44 24 10       	mov    %rax,0x10(%rsp)
  struct icmphdr *icmph = NULL;
    1f7a:	48 c7 44 24 08 00 00 	movq   $0x0,0x8(%rsp)
    1f81:	00 00 
        break;
    1f83:	e9 f0 f4 ff ff       	jmpq   1478 <nfc_cb+0x108>
    1f88:	0f 1f 84 00 00 00 00 	nopl   0x0(%rax,%rax,1)
    1f8f:	00 
        if (filter.icmpopts.check_code && filter.icmpopts.code != icmph->code)
    1f90:	41 3a 48 01          	cmp    0x1(%r8),%cl
    1f94:	0f 84 5b ff ff ff    	je     1ef5 <nfc_cb+0xb85>
    1f9a:	e9 01 fe ff ff       	jmpq   1da0 <nfc_cb+0xa30>
    1f9f:	90                   	nop
        icmph = (struct icmphdr *)(pkt + sizeof(struct ethhdr) + sizeof(struct ipv6hdr));
    1fa0:	48 8d 47 36          	lea    0x36(%rdi),%rax
  struct udphdr *udph = NULL;
    1fa4:	45 31 c0             	xor    %r8d,%r8d
  struct tcphdr *tcph = NULL;
    1fa7:	45 31 c9             	xor    %r9d,%r9d
  struct iphdr *iph = NULL;
    1faa:	45 31 d2             	xor    %r10d,%r10d
        icmph = (struct icmphdr *)(pkt + sizeof(struct ethhdr) + sizeof(struct ipv6hdr));
    1fad:	48 89 44 24 08       	mov    %rax,0x8(%rsp)
  struct icmp6hdr *icmp6h = NULL;
    1fb2:	48 c7 44 24 10 00 00 	movq   $0x0,0x10(%rsp)
    1fb9:	00 00 
        break;
    1fbb:	e9 b8 f4 ff ff       	jmpq   1478 <nfc_cb+0x108>
      if (filter.tcpopts.check_syn && filter.tcpopts.syn != tcph->syn)
    1fc0:	41 0f b6 41 0d       	movzbl 0xd(%r9),%eax
    1fc5:	d0 e8                	shr    %al
    1fc7:	83 e0 01             	and    $0x1,%eax
    1fca:	3a 44 24 1c          	cmp    0x1c(%rsp),%al
    1fce:	0f 84 c1 fc ff ff    	je     1c95 <nfc_cb+0x925>
    1fd4:	e9 c7 fd ff ff       	jmpq   1da0 <nfc_cb+0xa30>
    1fd9:	0f 1f 80 00 00 00 00 	nopl   0x0(%rax)
}

__fortify_function int
printf (const char *__restrict __fmt, ...)
{
  return __printf_chk (__USE_FORTIFY_LEVEL - 1, __fmt, __va_arg_pack ());
    1fe0:	89 ea                	mov    %ebp,%edx
    1fe2:	48 8d 35 1b 10 00 00 	lea    0x101b(%rip),%rsi        # 3004 <_IO_stdin_used+0x4>
    1fe9:	bf 01 00 00 00       	mov    $0x1,%edi
    1fee:	31 c0                	xor    %eax,%eax
    1ff0:	e8 8b f1 ff ff       	callq  1180 <__printf_chk@plt>
        tmp1++;
    1ff5:	83 05 30 30 00 00 01 	addl   $0x1,0x3030(%rip)        # 502c <tmp1>
    1ffc:	e9 b7 fe ff ff       	jmpq   1eb8 <nfc_cb+0xb48>
    2001:	0f 1f 80 00 00 00 00 	nopl   0x0(%rax)
      } else if (icmp6h != NULL) {
    2008:	4c 8b 44 24 10       	mov    0x10(%rsp),%r8
    200d:	4d 85 c0             	test   %r8,%r8
    2010:	0f 84 8a fd ff ff    	je     1da0 <nfc_cb+0xa30>
        if (filter.icmpopts.check_code && filter.icmpopts.code != icmp6h->icmp6_code)
    2016:	a8 02                	test   $0x2,%al
    2018:	74 0a                	je     2024 <nfc_cb+0xcb4>
    201a:	41 3a 48 01          	cmp    0x1(%r8),%cl
    201e:	0f 85 7c fd ff ff    	jne    1da0 <nfc_cb+0xa30>
        if (filter.icmpopts.check_type && filter.icmpopts.type != icmp6h->icmp6_type)
    2024:	f6 44 24 4e 01       	testb  $0x1,0x4e(%rsp)
    2029:	0f 84 89 fe ff ff    	je     1eb8 <nfc_cb+0xb48>
    202f:	48 8b 44 24 10       	mov    0x10(%rsp),%rax
    2034:	38 10                	cmp    %dl,(%rax)
    2036:	0f 84 7c fe ff ff    	je     1eb8 <nfc_cb+0xb48>
    203c:	e9 5f fd ff ff       	jmpq   1da0 <nfc_cb+0xa30>
    2041:	0f 1f 80 00 00 00 00 	nopl   0x0(%rax)
    switch (iph6->nexthdr) {
    2048:	48 c7 44 24 10 00 00 	movq   $0x0,0x10(%rsp)
    204f:	00 00 
    2051:	45 31 c0             	xor    %r8d,%r8d
    2054:	45 31 c9             	xor    %r9d,%r9d
    2057:	45 31 d2             	xor    %r10d,%r10d
    205a:	48 c7 44 24 08 00 00 	movq   $0x0,0x8(%rsp)
    2061:	00 00 
    2063:	e9 10 f4 ff ff       	jmpq   1478 <nfc_cb+0x108>
    2068:	0f 1f 84 00 00 00 00 	nopl   0x0(%rax,%rax,1)
    206f:	00 
        icmph = (struct icmphdr *)(pkt + sizeof(struct ethhdr) + sizeof(struct iphdr));
    2070:	48 8d 47 22          	lea    0x22(%rdi),%rax
  struct udphdr *udph = NULL;
    2074:	45 31 c0             	xor    %r8d,%r8d
  struct tcphdr *tcph = NULL;
    2077:	45 31 c9             	xor    %r9d,%r9d
  struct icmp6hdr *icmp6h = NULL;
    207a:	48 c7 44 24 10 00 00 	movq   $0x0,0x10(%rsp)
    2081:	00 00 
        icmph = (struct icmphdr *)(pkt + sizeof(struct ethhdr) + sizeof(struct iphdr));
    2083:	48 89 44 24 08       	mov    %rax,0x8(%rsp)
        break;
    2088:	e9 eb f3 ff ff       	jmpq   1478 <nfc_cb+0x108>
    208d:	0f 1f 00             	nopl   (%rax)
  struct icmp6hdr *icmp6h = NULL;
    2090:	48 c7 44 24 10 00 00 	movq   $0x0,0x10(%rsp)
    2097:	00 00 
        udph = (struct udphdr *)(pkt + sizeof(struct ethhdr) + sizeof(struct iphdr));
    2099:	4c 8d 47 22          	lea    0x22(%rdi),%r8
  struct tcphdr *tcph = NULL;
    209d:	45 31 c9             	xor    %r9d,%r9d
  struct icmphdr *icmph = NULL;
    20a0:	48 c7 44 24 08 00 00 	movq   $0x0,0x8(%rsp)
    20a7:	00 00 
        break;
    20a9:	e9 ca f3 ff ff       	jmpq   1478 <nfc_cb+0x108>
    20ae:	66 90                	xchg   %ax,%ax
  struct icmp6hdr *icmp6h = NULL;
    20b0:	48 c7 44 24 10 00 00 	movq   $0x0,0x10(%rsp)
    20b7:	00 00 
        tcph = (struct tcphdr *)(pkt + sizeof(struct ethhdr) + sizeof(struct iphdr));
    20b9:	4c 8d 4f 22          	lea    0x22(%rdi),%r9
  struct udphdr *udph = NULL;
    20bd:	45 31 c0             	xor    %r8d,%r8d
  struct icmphdr *icmph = NULL;
    20c0:	48 c7 44 24 08 00 00 	movq   $0x0,0x8(%rsp)
    20c7:	00 00 
        break;
    20c9:	e9 aa f3 ff ff       	jmpq   1478 <nfc_cb+0x108>
  struct icmp6hdr *icmp6h = NULL;
    20ce:	48 c7 44 24 10 00 00 	movq   $0x0,0x10(%rsp)
    20d5:	00 00 
        udph = (struct udphdr *)(pkt + sizeof(struct ethhdr) + sizeof(struct ipv6hdr));
    20d7:	4c 8d 47 36          	lea    0x36(%rdi),%r8
  struct tcphdr *tcph = NULL;
    20db:	45 31 c9             	xor    %r9d,%r9d
  struct iphdr *iph = NULL;
    20de:	45 31 d2             	xor    %r10d,%r10d
  struct icmphdr *icmph = NULL;
    20e1:	48 c7 44 24 08 00 00 	movq   $0x0,0x8(%rsp)
    20e8:	00 00 
        break;
    20ea:	e9 89 f3 ff ff       	jmpq   1478 <nfc_cb+0x108>
    20ef:	90                   	nop

00000000000020f0 <trap>:
void trap() {
    20f0:	f3 0f 1e fa          	endbr64 
    20f4:	50                   	push   %rax
    20f5:	58                   	pop    %rax
    20f6:	48 8d 3d 18 0f 00 00 	lea    0xf18(%rip),%rdi        # 3015 <_IO_stdin_used+0x15>
    20fd:	48 83 ec 08          	sub    $0x8,%rsp
    2101:	e8 6a f0 ff ff       	callq  1170 <puts@plt>
  exit(1);
    2106:	bf 01 00 00 00       	mov    $0x1,%edi
    210b:	e8 30 f0 ff ff       	callq  1140 <exit@plt>

0000000000002110 <my_htons>:
uint16_t my_htons(uint16_t hostshort) {
    2110:	f3 0f 1e fa          	endbr64 
    return ((hostshort & 0xff) << 8) | ((hostshort & 0xff00) >> 8);
    2114:	89 f8                	mov    %edi,%eax
    2116:	66 c1 c0 08          	rol    $0x8,%ax
}
    211a:	c3                   	retq   
    211b:	0f 1f 44 00 00       	nopl   0x0(%rax,%rax,1)

0000000000002120 <my_ntohs>:
    2120:	f3 0f 1e fa          	endbr64 
    2124:	89 f8                	mov    %edi,%eax
    2126:	66 c1 c0 08          	rol    $0x8,%ax
    212a:	c3                   	retq   
    212b:	0f 1f 44 00 00       	nopl   0x0(%rax,%rax,1)

0000000000002130 <setup_rules>:
int setup_rules() {
    2130:	f3 0f 1e fa          	endbr64 
    2134:	55                   	push   %rbp
  if (inet_pton(AF_INET, "10.10.1.201", &saddr) < 1) {
    2135:	48 8d 35 df 0e 00 00 	lea    0xedf(%rip),%rsi        # 301b <_IO_stdin_used+0x1b>
    213c:	bf 02 00 00 00       	mov    $0x2,%edi
int setup_rules() {
    2141:	48 83 ec 20          	sub    $0x20,%rsp
    2145:	64 48 8b 04 25 28 00 	mov    %fs:0x28,%rax
    214c:	00 00 
    214e:	48 89 44 24 18       	mov    %rax,0x18(%rsp)
    2153:	31 c0                	xor    %eax,%eax
  if (inet_pton(AF_INET, "10.10.1.201", &saddr) < 1) {
    2155:	48 8d 6c 24 10       	lea    0x10(%rsp),%rbp
    215a:	48 89 ea             	mov    %rbp,%rdx
    215d:	e8 fe ef ff ff       	callq  1160 <inet_pton@plt>
    2162:	85 c0                	test   %eax,%eax
    2164:	0f 8e 16 0a 00 00    	jle    2b80 <setup_rules+0xa50>
  if (inet_pton(AF_INET, "10.10.0.109", &daddr) < 1) {
    216a:	4c 8d 44 24 14       	lea    0x14(%rsp),%r8
    216f:	48 8d 35 bb 0e 00 00 	lea    0xebb(%rip),%rsi        # 3031 <_IO_stdin_used+0x31>
    2176:	bf 02 00 00 00       	mov    $0x2,%edi
    217b:	4c 89 c2             	mov    %r8,%rdx
    217e:	4c 89 44 24 08       	mov    %r8,0x8(%rsp)
    2183:	e8 d8 ef ff ff       	callq  1160 <inet_pton@plt>
    2188:	85 c0                	test   %eax,%eax
    218a:	0f 8e f0 09 00 00    	jle    2b80 <setup_rules+0xa50>
    filters[i].check_tos = 1;
    2190:	8b 0d b2 2e 00 00    	mov    0x2eb2(%rip),%ecx        # 5048 <filters+0x8>
    filters[i].ip_saddr = saddr.s_addr;
    2196:	8b 54 24 10          	mov    0x10(%rsp),%edx
    filters[i].min_len = 30;
    219a:	bf 1e 00 00 00       	mov    $0x1e,%edi
    filters[i].max_len = 50;
    219f:	41 b8 32 00 00 00    	mov    $0x32,%r8d
    filters[i].ip_daddr = daddr.s_addr;
    21a5:	8b 44 24 14          	mov    0x14(%rsp),%eax
    filters[i].udpopts.sport = 1234;
    21a9:	41 b9 d2 04 00 00    	mov    $0x4d2,%r9d
    filters[i].udpopts.dport = 320;
    21af:	41 ba 40 01 00 00    	mov    $0x140,%r10d
    filters[i].min_len = 30;
    21b5:	41 bb 1e 00 00 00    	mov    $0x1e,%r11d
    filters[i].check_tos = 1;
    21bb:	81 e1 fe 00 fe 00    	and    $0xfe00fe,%ecx
    filters[i].check_min_len = 1;
    21c1:	80 0d 86 2e 00 00 01 	orb    $0x1,0x2e86(%rip)        # 504e <filters+0xe>
    filters[i].udpopts.sport = 1234;
    21c8:	be d2 04 00 00       	mov    $0x4d2,%esi
    filters[i].check_tos = 1;
    21cd:	81 c9 01 00 01 28    	or     $0x28010001,%ecx
    filters[i].check_max_len = 1;
    21d3:	80 0d 78 2e 00 00 01 	orb    $0x1,0x2e78(%rip)        # 5052 <filters+0x12>
    filters[i].check_tos = 1;
    21da:	89 0d 68 2e 00 00    	mov    %ecx,0x2e68(%rip)        # 5048 <filters+0x8>
    filters[i].check_max_ttl = 1;
    21e0:	0f b7 0d 65 2e 00 00 	movzwl 0x2e65(%rip),%ecx        # 504c <filters+0xc>
    filters[i].tcpopts.enabled = 0;
    21e7:	80 25 6a 2e 00 00 fe 	andb   $0xfe,0x2e6a(%rip)        # 5058 <filters+0x18>
    filters[i].check_max_ttl = 1;
    21ee:	66 81 e1 fe 00       	and    $0xfe,%cx
    filters[i].udpopts.enabled = 1;
    21f3:	80 0d 6a 2e 00 00 03 	orb    $0x3,0x2e6a(%rip)        # 5064 <filters+0x24>
    filters[i].check_max_ttl = 1;
    21fa:	66 81 c9 01 50       	or     $0x5001,%cx
    filters[i].udpopts.check_dport = 1;
    21ff:	80 0d 62 2e 00 00 01 	orb    $0x1,0x2e62(%rip)        # 5068 <filters+0x28>
    filters[i].check_max_ttl = 1;
    2206:	66 89 0d 3f 2e 00 00 	mov    %cx,0x2e3f(%rip)        # 504c <filters+0xc>
    filters[i].check_tos = 1;
    220d:	8b 0d 65 2e 00 00    	mov    0x2e65(%rip),%ecx        # 5078 <filters+0x38>
    filters[i].icmpopts.enabled = 0;
    2213:	80 25 52 2e 00 00 fe 	andb   $0xfe,0x2e52(%rip)        # 506c <filters+0x2c>
    filters[i].check_tos = 1;
    221a:	81 e1 fe 00 fe 00    	and    $0xfe00fe,%ecx
    filters[i].check_min_len = 1;
    2220:	80 0d 57 2e 00 00 01 	orb    $0x1,0x2e57(%rip)        # 507e <filters+0x3e>
    filters[i].check_tos = 1;
    2227:	81 c9 01 00 01 28    	or     $0x28010001,%ecx
    filters[i].ip_saddr = saddr.s_addr;
    222d:	89 15 0d 2e 00 00    	mov    %edx,0x2e0d(%rip)        # 5040 <filters>
    filters[i].check_tos = 1;
    2233:	89 0d 3f 2e 00 00    	mov    %ecx,0x2e3f(%rip)        # 5078 <filters+0x38>
    filters[i].check_max_ttl = 1;
    2239:	0f b7 0d 3c 2e 00 00 	movzwl 0x2e3c(%rip),%ecx        # 507c <filters+0x3c>
    filters[i].ip_daddr = daddr.s_addr;
    2240:	89 05 fe 2d 00 00    	mov    %eax,0x2dfe(%rip)        # 5044 <filters+0x4>
    filters[i].check_max_ttl = 1;
    2246:	66 81 e1 fe 00       	and    $0xfe,%cx
    filters[i].min_len = 30;
    224b:	66 89 3d fe 2d 00 00 	mov    %di,0x2dfe(%rip)        # 5050 <filters+0x10>
    filters[i].udpopts.dport = 320;
    2252:	bf 40 01 00 00       	mov    $0x140,%edi
    filters[i].check_max_ttl = 1;
    2257:	66 81 c9 01 50       	or     $0x5001,%cx
    filters[i].max_len = 50;
    225c:	66 44 89 05 f0 2d 00 	mov    %r8w,0x2df0(%rip)        # 5054 <filters+0x14>
    2263:	00 
    filters[i].min_len = 30;
    2264:	41 b8 1e 00 00 00    	mov    $0x1e,%r8d
    filters[i].check_max_ttl = 1;
    226a:	66 89 0d 0b 2e 00 00 	mov    %cx,0x2e0b(%rip)        # 507c <filters+0x3c>
    filters[i].max_len = 50;
    2271:	b9 32 00 00 00       	mov    $0x32,%ecx
    filters[i].udpopts.sport = 1234;
    2276:	66 44 89 0d e8 2d 00 	mov    %r9w,0x2de8(%rip)        # 5066 <filters+0x26>
    227d:	00 
    filters[i].max_len = 50;
    227e:	41 b9 32 00 00 00    	mov    $0x32,%r9d
    filters[i].udpopts.dport = 320;
    2284:	66 44 89 15 de 2d 00 	mov    %r10w,0x2dde(%rip)        # 506a <filters+0x2a>
    228b:	00 
    filters[i].udpopts.sport = 1234;
    228c:	41 ba d2 04 00 00    	mov    $0x4d2,%r10d
    filters[i].ip_saddr = saddr.s_addr;
    2292:	89 15 d8 2d 00 00    	mov    %edx,0x2dd8(%rip)        # 5070 <filters+0x30>
    filters[i].ip_daddr = daddr.s_addr;
    2298:	89 05 d6 2d 00 00    	mov    %eax,0x2dd6(%rip)        # 5074 <filters+0x34>
    filters[i].min_len = 30;
    229e:	66 44 89 1d da 2d 00 	mov    %r11w,0x2dda(%rip)        # 5080 <filters+0x40>
    22a5:	00 
    filters[i].udpopts.dport = 320;
    22a6:	41 bb 40 01 00 00    	mov    $0x140,%r11d
    filters[i].max_len = 50;
    22ac:	66 89 0d d1 2d 00 00 	mov    %cx,0x2dd1(%rip)        # 5084 <filters+0x44>
    filters[i].check_tos = 1;
    22b3:	8b 0d ef 2d 00 00    	mov    0x2def(%rip),%ecx        # 50a8 <filters+0x68>
    filters[i].check_max_len = 1;
    22b9:	80 0d c2 2d 00 00 01 	orb    $0x1,0x2dc2(%rip)        # 5082 <filters+0x42>
    filters[i].check_tos = 1;
    22c0:	81 e1 fe 00 fe 00    	and    $0xfe00fe,%ecx
    filters[i].tcpopts.enabled = 0;
    22c6:	80 25 bb 2d 00 00 fe 	andb   $0xfe,0x2dbb(%rip)        # 5088 <filters+0x48>
    filters[i].check_tos = 1;
    22cd:	81 c9 01 00 01 28    	or     $0x28010001,%ecx
    filters[i].udpopts.enabled = 1;
    22d3:	80 0d ba 2d 00 00 03 	orb    $0x3,0x2dba(%rip)        # 5094 <filters+0x54>
    filters[i].check_tos = 1;
    22da:	89 0d c8 2d 00 00    	mov    %ecx,0x2dc8(%rip)        # 50a8 <filters+0x68>
    filters[i].check_max_ttl = 1;
    22e0:	0f b7 0d c5 2d 00 00 	movzwl 0x2dc5(%rip),%ecx        # 50ac <filters+0x6c>
    filters[i].udpopts.check_dport = 1;
    22e7:	80 0d aa 2d 00 00 01 	orb    $0x1,0x2daa(%rip)        # 5098 <filters+0x58>
    filters[i].check_max_ttl = 1;
    22ee:	66 81 e1 fe 00       	and    $0xfe,%cx
    filters[i].icmpopts.enabled = 0;
    22f3:	80 25 a2 2d 00 00 fe 	andb   $0xfe,0x2da2(%rip)        # 509c <filters+0x5c>
    filters[i].check_max_ttl = 1;
    22fa:	66 81 c9 01 50       	or     $0x5001,%cx
    filters[i].check_min_len = 1;
    22ff:	80 0d a8 2d 00 00 01 	orb    $0x1,0x2da8(%rip)        # 50ae <filters+0x6e>
    filters[i].check_max_len = 1;
    2306:	80 0d a5 2d 00 00 01 	orb    $0x1,0x2da5(%rip)        # 50b2 <filters+0x72>
    filters[i].tcpopts.enabled = 0;
    230d:	80 25 a4 2d 00 00 fe 	andb   $0xfe,0x2da4(%rip)        # 50b8 <filters+0x78>
    filters[i].udpopts.enabled = 1;
    2314:	80 0d a9 2d 00 00 03 	orb    $0x3,0x2da9(%rip)        # 50c4 <filters+0x84>
    filters[i].udpopts.check_dport = 1;
    231b:	80 0d a6 2d 00 00 01 	orb    $0x1,0x2da6(%rip)        # 50c8 <filters+0x88>
    filters[i].udpopts.sport = 1234;
    2322:	66 89 35 6d 2d 00 00 	mov    %si,0x2d6d(%rip)        # 5096 <filters+0x56>
    filters[i].max_len = 50;
    2329:	be 32 00 00 00       	mov    $0x32,%esi
    filters[i].udpopts.dport = 320;
    232e:	66 89 3d 65 2d 00 00 	mov    %di,0x2d65(%rip)        # 509a <filters+0x5a>
    filters[i].udpopts.sport = 1234;
    2335:	bf d2 04 00 00       	mov    $0x4d2,%edi
    filters[i].ip_saddr = saddr.s_addr;
    233a:	89 15 60 2d 00 00    	mov    %edx,0x2d60(%rip)        # 50a0 <filters+0x60>
    filters[i].ip_daddr = daddr.s_addr;
    2340:	89 05 5e 2d 00 00    	mov    %eax,0x2d5e(%rip)        # 50a4 <filters+0x64>
    filters[i].check_max_ttl = 1;
    2346:	66 89 0d 5f 2d 00 00 	mov    %cx,0x2d5f(%rip)        # 50ac <filters+0x6c>
    filters[i].min_len = 30;
    234d:	66 44 89 05 5b 2d 00 	mov    %r8w,0x2d5b(%rip)        # 50b0 <filters+0x70>
    2354:	00 
    filters[i].udpopts.dport = 320;
    2355:	41 b8 40 01 00 00    	mov    $0x140,%r8d
    filters[i].max_len = 50;
    235b:	66 44 89 0d 51 2d 00 	mov    %r9w,0x2d51(%rip)        # 50b4 <filters+0x74>
    2362:	00 
    filters[i].min_len = 30;
    2363:	41 b9 1e 00 00 00    	mov    $0x1e,%r9d
    filters[i].udpopts.sport = 1234;
    2369:	66 44 89 15 55 2d 00 	mov    %r10w,0x2d55(%rip)        # 50c6 <filters+0x86>
    2370:	00 
    filters[i].max_len = 50;
    2371:	41 ba 32 00 00 00    	mov    $0x32,%r10d
    filters[i].udpopts.dport = 320;
    2377:	66 44 89 1d 4b 2d 00 	mov    %r11w,0x2d4b(%rip)        # 50ca <filters+0x8a>
    237e:	00 
    filters[i].check_tos = 1;
    237f:	8b 0d 53 2d 00 00    	mov    0x2d53(%rip),%ecx        # 50d8 <filters+0x98>
    filters[i].udpopts.sport = 1234;
    2385:	41 bb d2 04 00 00    	mov    $0x4d2,%r11d
    filters[i].icmpopts.enabled = 0;
    238b:	80 25 3a 2d 00 00 fe 	andb   $0xfe,0x2d3a(%rip)        # 50cc <filters+0x8c>
    filters[i].check_tos = 1;
    2392:	81 e1 fe 00 fe 00    	and    $0xfe00fe,%ecx
    filters[i].ip_saddr = saddr.s_addr;
    2398:	89 15 32 2d 00 00    	mov    %edx,0x2d32(%rip)        # 50d0 <filters+0x90>
    filters[i].check_tos = 1;
    239e:	81 c9 01 00 01 28    	or     $0x28010001,%ecx
    filters[i].ip_daddr = daddr.s_addr;
    23a4:	89 05 2a 2d 00 00    	mov    %eax,0x2d2a(%rip)        # 50d4 <filters+0x94>
    filters[i].check_tos = 1;
    23aa:	89 0d 28 2d 00 00    	mov    %ecx,0x2d28(%rip)        # 50d8 <filters+0x98>
    filters[i].check_max_ttl = 1;
    23b0:	0f b7 0d 25 2d 00 00 	movzwl 0x2d25(%rip),%ecx        # 50dc <filters+0x9c>
    filters[i].max_len = 50;
    23b7:	66 89 35 26 2d 00 00 	mov    %si,0x2d26(%rip)        # 50e4 <filters+0xa4>
    filters[i].min_len = 30;
    23be:	be 1e 00 00 00       	mov    $0x1e,%esi
    filters[i].check_max_ttl = 1;
    23c3:	66 81 e1 fe 00       	and    $0xfe,%cx
    filters[i].udpopts.sport = 1234;
    23c8:	66 89 3d 27 2d 00 00 	mov    %di,0x2d27(%rip)        # 50f6 <filters+0xb6>
    filters[i].max_len = 50;
    23cf:	bf 32 00 00 00       	mov    $0x32,%edi
    filters[i].check_max_ttl = 1;
    23d4:	66 81 c9 01 50       	or     $0x5001,%cx
    filters[i].check_min_len = 1;
    23d9:	80 0d fe 2c 00 00 01 	orb    $0x1,0x2cfe(%rip)        # 50de <filters+0x9e>
    filters[i].check_max_ttl = 1;
    23e0:	66 89 0d f5 2c 00 00 	mov    %cx,0x2cf5(%rip)        # 50dc <filters+0x9c>
    filters[i].min_len = 30;
    23e7:	b9 1e 00 00 00       	mov    $0x1e,%ecx
    23ec:	66 89 0d ed 2c 00 00 	mov    %cx,0x2ced(%rip)        # 50e0 <filters+0xa0>
    filters[i].check_tos = 1;
    23f3:	8b 0d 0f 2d 00 00    	mov    0x2d0f(%rip),%ecx        # 5108 <filters+0xc8>
    filters[i].check_max_len = 1;
    23f9:	80 0d e2 2c 00 00 01 	orb    $0x1,0x2ce2(%rip)        # 50e2 <filters+0xa2>
    filters[i].check_tos = 1;
    2400:	81 e1 fe 00 fe 00    	and    $0xfe00fe,%ecx
    filters[i].tcpopts.enabled = 0;
    2406:	80 25 db 2c 00 00 fe 	andb   $0xfe,0x2cdb(%rip)        # 50e8 <filters+0xa8>
    filters[i].check_tos = 1;
    240d:	81 c9 01 00 01 28    	or     $0x28010001,%ecx
    filters[i].udpopts.enabled = 1;
    2413:	80 0d da 2c 00 00 03 	orb    $0x3,0x2cda(%rip)        # 50f4 <filters+0xb4>
    filters[i].check_tos = 1;
    241a:	89 0d e8 2c 00 00    	mov    %ecx,0x2ce8(%rip)        # 5108 <filters+0xc8>
    filters[i].check_max_ttl = 1;
    2420:	0f b7 0d e5 2c 00 00 	movzwl 0x2ce5(%rip),%ecx        # 510c <filters+0xcc>
    filters[i].udpopts.check_dport = 1;
    2427:	80 0d ca 2c 00 00 01 	orb    $0x1,0x2cca(%rip)        # 50f8 <filters+0xb8>
    filters[i].check_max_ttl = 1;
    242e:	66 81 e1 fe 00       	and    $0xfe,%cx
    filters[i].icmpopts.enabled = 0;
    2433:	80 25 c2 2c 00 00 fe 	andb   $0xfe,0x2cc2(%rip)        # 50fc <filters+0xbc>
    filters[i].check_max_ttl = 1;
    243a:	66 81 c9 01 50       	or     $0x5001,%cx
    filters[i].check_min_len = 1;
    243f:	80 0d c8 2c 00 00 01 	orb    $0x1,0x2cc8(%rip)        # 510e <filters+0xce>
    filters[i].check_max_ttl = 1;
    2446:	66 89 0d bf 2c 00 00 	mov    %cx,0x2cbf(%rip)        # 510c <filters+0xcc>
    filters[i].udpopts.dport = 320;
    244d:	b9 40 01 00 00       	mov    $0x140,%ecx
    2452:	66 44 89 05 a0 2c 00 	mov    %r8w,0x2ca0(%rip)        # 50fa <filters+0xba>
    2459:	00 
    filters[i].udpopts.sport = 1234;
    245a:	41 b8 d2 04 00 00    	mov    $0x4d2,%r8d
    filters[i].ip_saddr = saddr.s_addr;
    2460:	89 15 9a 2c 00 00    	mov    %edx,0x2c9a(%rip)        # 5100 <filters+0xc0>
    filters[i].ip_daddr = daddr.s_addr;
    2466:	89 05 98 2c 00 00    	mov    %eax,0x2c98(%rip)        # 5104 <filters+0xc4>
    filters[i].min_len = 30;
    246c:	66 44 89 0d 9c 2c 00 	mov    %r9w,0x2c9c(%rip)        # 5110 <filters+0xd0>
    2473:	00 
    filters[i].udpopts.dport = 320;
    2474:	41 b9 40 01 00 00    	mov    $0x140,%r9d
    247a:	66 89 0d a9 2c 00 00 	mov    %cx,0x2ca9(%rip)        # 512a <filters+0xea>
    filters[i].check_tos = 1;
    2481:	8b 0d b1 2c 00 00    	mov    0x2cb1(%rip),%ecx        # 5138 <filters+0xf8>
    filters[i].check_max_len = 1;
    2487:	80 0d 84 2c 00 00 01 	orb    $0x1,0x2c84(%rip)        # 5112 <filters+0xd2>
    filters[i].check_tos = 1;
    248e:	81 e1 fe 00 fe 00    	and    $0xfe00fe,%ecx
    filters[i].tcpopts.enabled = 0;
    2494:	80 25 7d 2c 00 00 fe 	andb   $0xfe,0x2c7d(%rip)        # 5118 <filters+0xd8>
    filters[i].check_tos = 1;
    249b:	81 c9 01 00 01 28    	or     $0x28010001,%ecx
    filters[i].udpopts.enabled = 1;
    24a1:	80 0d 7c 2c 00 00 03 	orb    $0x3,0x2c7c(%rip)        # 5124 <filters+0xe4>
    filters[i].check_tos = 1;
    24a8:	89 0d 8a 2c 00 00    	mov    %ecx,0x2c8a(%rip)        # 5138 <filters+0xf8>
    filters[i].check_max_ttl = 1;
    24ae:	0f b7 0d 87 2c 00 00 	movzwl 0x2c87(%rip),%ecx        # 513c <filters+0xfc>
    filters[i].udpopts.check_dport = 1;
    24b5:	80 0d 6c 2c 00 00 01 	orb    $0x1,0x2c6c(%rip)        # 5128 <filters+0xe8>
    filters[i].check_max_ttl = 1;
    24bc:	66 81 e1 fe 00       	and    $0xfe,%cx
    filters[i].icmpopts.enabled = 0;
    24c1:	80 25 64 2c 00 00 fe 	andb   $0xfe,0x2c64(%rip)        # 512c <filters+0xec>
    filters[i].check_max_ttl = 1;
    24c8:	66 81 c9 01 50       	or     $0x5001,%cx
    filters[i].check_min_len = 1;
    24cd:	80 0d 6a 2c 00 00 01 	orb    $0x1,0x2c6a(%rip)        # 513e <filters+0xfe>
    filters[i].check_max_len = 1;
    24d4:	80 0d 67 2c 00 00 01 	orb    $0x1,0x2c67(%rip)        # 5142 <filters+0x102>
    filters[i].tcpopts.enabled = 0;
    24db:	80 25 66 2c 00 00 fe 	andb   $0xfe,0x2c66(%rip)        # 5148 <filters+0x108>
    filters[i].udpopts.enabled = 1;
    24e2:	80 0d 6b 2c 00 00 03 	orb    $0x3,0x2c6b(%rip)        # 5154 <filters+0x114>
    filters[i].udpopts.check_dport = 1;
    24e9:	80 0d 68 2c 00 00 01 	orb    $0x1,0x2c68(%rip)        # 5158 <filters+0x118>
    filters[i].max_len = 50;
    24f0:	66 44 89 15 1c 2c 00 	mov    %r10w,0x2c1c(%rip)        # 5114 <filters+0xd4>
    24f7:	00 
    filters[i].min_len = 30;
    24f8:	41 ba 1e 00 00 00    	mov    $0x1e,%r10d
    filters[i].udpopts.sport = 1234;
    24fe:	66 44 89 1d 20 2c 00 	mov    %r11w,0x2c20(%rip)        # 5126 <filters+0xe6>
    2505:	00 
    filters[i].max_len = 50;
    2506:	41 bb 32 00 00 00    	mov    $0x32,%r11d
    filters[i].ip_saddr = saddr.s_addr;
    250c:	89 15 1e 2c 00 00    	mov    %edx,0x2c1e(%rip)        # 5130 <filters+0xf0>
    filters[i].ip_daddr = daddr.s_addr;
    2512:	89 05 1c 2c 00 00    	mov    %eax,0x2c1c(%rip)        # 5134 <filters+0xf4>
    filters[i].check_max_ttl = 1;
    2518:	66 89 0d 1d 2c 00 00 	mov    %cx,0x2c1d(%rip)        # 513c <filters+0xfc>
    filters[i].min_len = 30;
    251f:	66 89 35 1a 2c 00 00 	mov    %si,0x2c1a(%rip)        # 5140 <filters+0x100>
    filters[i].udpopts.dport = 320;
    2526:	be 40 01 00 00       	mov    $0x140,%esi
    filters[i].max_len = 50;
    252b:	66 89 3d 12 2c 00 00 	mov    %di,0x2c12(%rip)        # 5144 <filters+0x104>
    filters[i].min_len = 30;
    2532:	bf 1e 00 00 00       	mov    $0x1e,%edi
    filters[i].udpopts.sport = 1234;
    2537:	66 44 89 05 17 2c 00 	mov    %r8w,0x2c17(%rip)        # 5156 <filters+0x116>
    253e:	00 
    filters[i].max_len = 50;
    253f:	41 b8 32 00 00 00    	mov    $0x32,%r8d
    filters[i].udpopts.dport = 320;
    2545:	66 44 89 0d 0d 2c 00 	mov    %r9w,0x2c0d(%rip)        # 515a <filters+0x11a>
    254c:	00 
    filters[i].check_tos = 1;
    254d:	8b 0d 15 2c 00 00    	mov    0x2c15(%rip),%ecx        # 5168 <filters+0x128>
    filters[i].udpopts.sport = 1234;
    2553:	41 b9 d2 04 00 00    	mov    $0x4d2,%r9d
    filters[i].icmpopts.enabled = 0;
    2559:	80 25 fc 2b 00 00 fe 	andb   $0xfe,0x2bfc(%rip)        # 515c <filters+0x11c>
    filters[i].check_tos = 1;
    2560:	81 e1 fe 00 fe 00    	and    $0xfe00fe,%ecx
    filters[i].ip_saddr = saddr.s_addr;
    2566:	89 15 f4 2b 00 00    	mov    %edx,0x2bf4(%rip)        # 5160 <filters+0x120>
    filters[i].check_tos = 1;
    256c:	81 c9 01 00 01 28    	or     $0x28010001,%ecx
    filters[i].ip_daddr = daddr.s_addr;
    2572:	89 05 ec 2b 00 00    	mov    %eax,0x2bec(%rip)        # 5164 <filters+0x124>
    filters[i].check_tos = 1;
    2578:	89 0d ea 2b 00 00    	mov    %ecx,0x2bea(%rip)        # 5168 <filters+0x128>
    filters[i].check_max_ttl = 1;
    257e:	0f b7 0d e7 2b 00 00 	movzwl 0x2be7(%rip),%ecx        # 516c <filters+0x12c>
    filters[i].min_len = 30;
    2585:	66 44 89 15 e3 2b 00 	mov    %r10w,0x2be3(%rip)        # 5170 <filters+0x130>
    258c:	00 
    filters[i].udpopts.dport = 320;
    258d:	41 ba 40 01 00 00    	mov    $0x140,%r10d
    filters[i].check_max_ttl = 1;
    2593:	66 81 e1 fe 00       	and    $0xfe,%cx
    filters[i].max_len = 50;
    2598:	66 44 89 1d d4 2b 00 	mov    %r11w,0x2bd4(%rip)        # 5174 <filters+0x134>
    259f:	00 
    filters[i].min_len = 30;
    25a0:	41 bb 1e 00 00 00    	mov    $0x1e,%r11d
    filters[i].check_max_ttl = 1;
    25a6:	66 81 c9 01 50       	or     $0x5001,%cx
    filters[i].check_min_len = 1;
    25ab:	80 0d bc 2b 00 00 01 	orb    $0x1,0x2bbc(%rip)        # 516e <filters+0x12e>
    filters[i].check_max_ttl = 1;
    25b2:	66 89 0d b3 2b 00 00 	mov    %cx,0x2bb3(%rip)        # 516c <filters+0x12c>
    filters[i].udpopts.sport = 1234;
    25b9:	b9 d2 04 00 00       	mov    $0x4d2,%ecx
    25be:	66 89 0d c1 2b 00 00 	mov    %cx,0x2bc1(%rip)        # 5186 <filters+0x146>
    filters[i].check_tos = 1;
    25c5:	8b 0d cd 2b 00 00    	mov    0x2bcd(%rip),%ecx        # 5198 <filters+0x158>
    filters[i].check_max_len = 1;
    25cb:	80 0d a0 2b 00 00 01 	orb    $0x1,0x2ba0(%rip)        # 5172 <filters+0x132>
    filters[i].check_tos = 1;
    25d2:	81 e1 fe 00 fe 00    	and    $0xfe00fe,%ecx
    filters[i].tcpopts.enabled = 0;
    25d8:	80 25 99 2b 00 00 fe 	andb   $0xfe,0x2b99(%rip)        # 5178 <filters+0x138>
    filters[i].check_tos = 1;
    25df:	81 c9 01 00 01 28    	or     $0x28010001,%ecx
    filters[i].udpopts.enabled = 1;
    25e5:	80 0d 98 2b 00 00 03 	orb    $0x3,0x2b98(%rip)        # 5184 <filters+0x144>
    filters[i].check_tos = 1;
    25ec:	89 0d a6 2b 00 00    	mov    %ecx,0x2ba6(%rip)        # 5198 <filters+0x158>
    filters[i].check_max_ttl = 1;
    25f2:	0f b7 0d a3 2b 00 00 	movzwl 0x2ba3(%rip),%ecx        # 519c <filters+0x15c>
    filters[i].udpopts.check_dport = 1;
    25f9:	80 0d 88 2b 00 00 01 	orb    $0x1,0x2b88(%rip)        # 5188 <filters+0x148>
    filters[i].check_max_ttl = 1;
    2600:	66 81 e1 fe 00       	and    $0xfe,%cx
    filters[i].icmpopts.enabled = 0;
    2605:	80 25 80 2b 00 00 fe 	andb   $0xfe,0x2b80(%rip)        # 518c <filters+0x14c>
    filters[i].check_max_ttl = 1;
    260c:	66 81 c9 01 50       	or     $0x5001,%cx
    filters[i].check_min_len = 1;
    2611:	80 0d 86 2b 00 00 01 	orb    $0x1,0x2b86(%rip)        # 519e <filters+0x15e>
    filters[i].udpopts.dport = 320;
    2618:	66 89 35 6b 2b 00 00 	mov    %si,0x2b6b(%rip)        # 518a <filters+0x14a>
    filters[i].udpopts.sport = 1234;
    261f:	be d2 04 00 00       	mov    $0x4d2,%esi
    filters[i].ip_saddr = saddr.s_addr;
    2624:	89 15 66 2b 00 00    	mov    %edx,0x2b66(%rip)        # 5190 <filters+0x150>
    filters[i].ip_daddr = daddr.s_addr;
    262a:	89 05 64 2b 00 00    	mov    %eax,0x2b64(%rip)        # 5194 <filters+0x154>
    filters[i].check_max_ttl = 1;
    2630:	66 89 0d 65 2b 00 00 	mov    %cx,0x2b65(%rip)        # 519c <filters+0x15c>
    filters[i].min_len = 30;
    2637:	66 89 3d 62 2b 00 00 	mov    %di,0x2b62(%rip)        # 51a0 <filters+0x160>
    filters[i].check_tos = 1;
    263e:	8b 0d 84 2b 00 00    	mov    0x2b84(%rip),%ecx        # 51c8 <filters+0x188>
    filters[i].udpopts.dport = 320;
    2644:	bf 40 01 00 00       	mov    $0x140,%edi
    filters[i].check_max_len = 1;
    2649:	80 0d 52 2b 00 00 01 	orb    $0x1,0x2b52(%rip)        # 51a2 <filters+0x162>
    filters[i].check_tos = 1;
    2650:	81 e1 fe 00 fe 00    	and    $0xfe00fe,%ecx
    filters[i].tcpopts.enabled = 0;
    2656:	80 25 4b 2b 00 00 fe 	andb   $0xfe,0x2b4b(%rip)        # 51a8 <filters+0x168>
    filters[i].check_tos = 1;
    265d:	81 c9 01 00 01 28    	or     $0x28010001,%ecx
    filters[i].udpopts.enabled = 1;
    2663:	80 0d 4a 2b 00 00 03 	orb    $0x3,0x2b4a(%rip)        # 51b4 <filters+0x174>
    filters[i].check_tos = 1;
    266a:	89 0d 58 2b 00 00    	mov    %ecx,0x2b58(%rip)        # 51c8 <filters+0x188>
    filters[i].check_max_ttl = 1;
    2670:	0f b7 0d 55 2b 00 00 	movzwl 0x2b55(%rip),%ecx        # 51cc <filters+0x18c>
    filters[i].udpopts.check_dport = 1;
    2677:	80 0d 3a 2b 00 00 01 	orb    $0x1,0x2b3a(%rip)        # 51b8 <filters+0x178>
    filters[i].check_max_ttl = 1;
    267e:	66 81 e1 fe 00       	and    $0xfe,%cx
    filters[i].icmpopts.enabled = 0;
    2683:	80 25 32 2b 00 00 fe 	andb   $0xfe,0x2b32(%rip)        # 51bc <filters+0x17c>
    filters[i].check_max_ttl = 1;
    268a:	66 81 c9 01 50       	or     $0x5001,%cx
    filters[i].check_min_len = 1;
    268f:	80 0d 38 2b 00 00 01 	orb    $0x1,0x2b38(%rip)        # 51ce <filters+0x18e>
    filters[i].check_max_ttl = 1;
    2696:	66 89 0d 2f 2b 00 00 	mov    %cx,0x2b2f(%rip)        # 51cc <filters+0x18c>
    filters[i].max_len = 50;
    269d:	b9 32 00 00 00       	mov    $0x32,%ecx
    filters[i].check_max_len = 1;
    26a2:	80 0d 29 2b 00 00 01 	orb    $0x1,0x2b29(%rip)        # 51d2 <filters+0x192>
    filters[i].tcpopts.enabled = 0;
    26a9:	80 25 28 2b 00 00 fe 	andb   $0xfe,0x2b28(%rip)        # 51d8 <filters+0x198>
    filters[i].udpopts.enabled = 1;
    26b0:	80 0d 2d 2b 00 00 03 	orb    $0x3,0x2b2d(%rip)        # 51e4 <filters+0x1a4>
    filters[i].udpopts.check_dport = 1;
    26b7:	80 0d 2a 2b 00 00 01 	orb    $0x1,0x2b2a(%rip)        # 51e8 <filters+0x1a8>
    filters[i].max_len = 50;
    26be:	66 44 89 05 de 2a 00 	mov    %r8w,0x2ade(%rip)        # 51a4 <filters+0x164>
    26c5:	00 
    filters[i].min_len = 30;
    26c6:	41 b8 1e 00 00 00    	mov    $0x1e,%r8d
    filters[i].udpopts.sport = 1234;
    26cc:	66 44 89 0d e2 2a 00 	mov    %r9w,0x2ae2(%rip)        # 51b6 <filters+0x176>
    26d3:	00 
    filters[i].max_len = 50;
    26d4:	41 b9 32 00 00 00    	mov    $0x32,%r9d
    filters[i].udpopts.dport = 320;
    26da:	66 44 89 15 d8 2a 00 	mov    %r10w,0x2ad8(%rip)        # 51ba <filters+0x17a>
    26e1:	00 
    filters[i].udpopts.sport = 1234;
    26e2:	41 ba d2 04 00 00    	mov    $0x4d2,%r10d
    filters[i].ip_saddr = saddr.s_addr;
    26e8:	89 15 d2 2a 00 00    	mov    %edx,0x2ad2(%rip)        # 51c0 <filters+0x180>
    filters[i].ip_daddr = daddr.s_addr;
    26ee:	89 05 d0 2a 00 00    	mov    %eax,0x2ad0(%rip)        # 51c4 <filters+0x184>
    filters[i].min_len = 30;
    26f4:	66 44 89 1d d4 2a 00 	mov    %r11w,0x2ad4(%rip)        # 51d0 <filters+0x190>
    26fb:	00 
    filters[i].udpopts.dport = 320;
    26fc:	41 bb 40 01 00 00    	mov    $0x140,%r11d
    filters[i].max_len = 50;
    2702:	66 89 0d cb 2a 00 00 	mov    %cx,0x2acb(%rip)        # 51d4 <filters+0x194>
    filters[i].udpopts.sport = 1234;
    2709:	66 89 35 d6 2a 00 00 	mov    %si,0x2ad6(%rip)        # 51e6 <filters+0x1a6>
    filters[i].max_len = 50;
    2710:	be 32 00 00 00       	mov    $0x32,%esi
    filters[i].udpopts.dport = 320;
    2715:	66 89 3d ce 2a 00 00 	mov    %di,0x2ace(%rip)        # 51ea <filters+0x1aa>
    filters[i].check_tos = 1;
    271c:	8b 0d d6 2a 00 00    	mov    0x2ad6(%rip),%ecx        # 51f8 <filters+0x1b8>
    filters[i].udpopts.sport = 1234;
    2722:	bf d2 04 00 00       	mov    $0x4d2,%edi
    filters[i].icmpopts.enabled = 0;
    2727:	80 25 be 2a 00 00 fe 	andb   $0xfe,0x2abe(%rip)        # 51ec <filters+0x1ac>
    filters[i].check_tos = 1;
    272e:	81 e1 fe 00 fe 00    	and    $0xfe00fe,%ecx
    filters[i].check_min_len = 1;
    2734:	80 0d c3 2a 00 00 01 	orb    $0x1,0x2ac3(%rip)        # 51fe <filters+0x1be>
    filters[i].check_tos = 1;
    273b:	81 c9 01 00 01 28    	or     $0x28010001,%ecx
    filters[i].check_max_len = 1;
    2741:	80 0d ba 2a 00 00 01 	orb    $0x1,0x2aba(%rip)        # 5202 <filters+0x1c2>
    filters[i].check_tos = 1;
    2748:	89 0d aa 2a 00 00    	mov    %ecx,0x2aaa(%rip)        # 51f8 <filters+0x1b8>
    filters[i].check_max_ttl = 1;
    274e:	0f b7 0d a7 2a 00 00 	movzwl 0x2aa7(%rip),%ecx        # 51fc <filters+0x1bc>
    filters[i].ip_saddr = saddr.s_addr;
    2755:	89 15 95 2a 00 00    	mov    %edx,0x2a95(%rip)        # 51f0 <filters+0x1b0>
    filters[i].check_max_ttl = 1;
    275b:	66 81 e1 fe 00       	and    $0xfe,%cx
    filters[i].ip_daddr = daddr.s_addr;
    2760:	89 05 8e 2a 00 00    	mov    %eax,0x2a8e(%rip)        # 51f4 <filters+0x1b4>
    filters[i].check_max_ttl = 1;
    2766:	66 81 c9 01 50       	or     $0x5001,%cx
    filters[i].tcpopts.enabled = 0;
    276b:	80 25 96 2a 00 00 fe 	andb   $0xfe,0x2a96(%rip)        # 5208 <filters+0x1c8>
    filters[i].check_max_ttl = 1;
    2772:	66 89 0d 83 2a 00 00 	mov    %cx,0x2a83(%rip)        # 51fc <filters+0x1bc>
    filters[i].check_tos = 1;
    2779:	8b 0d a9 2a 00 00    	mov    0x2aa9(%rip),%ecx        # 5228 <filters+0x1e8>
    filters[i].udpopts.enabled = 1;
    277f:	80 0d 8e 2a 00 00 03 	orb    $0x3,0x2a8e(%rip)        # 5214 <filters+0x1d4>
    filters[i].check_tos = 1;
    2786:	81 e1 fe 00 fe 00    	and    $0xfe00fe,%ecx
    filters[i].udpopts.check_dport = 1;
    278c:	80 0d 85 2a 00 00 01 	orb    $0x1,0x2a85(%rip)        # 5218 <filters+0x1d8>
    filters[i].check_tos = 1;
    2793:	81 c9 01 00 01 28    	or     $0x28010001,%ecx
    filters[i].icmpopts.enabled = 0;
    2799:	80 25 7c 2a 00 00 fe 	andb   $0xfe,0x2a7c(%rip)        # 521c <filters+0x1dc>
    filters[i].check_tos = 1;
    27a0:	89 0d 82 2a 00 00    	mov    %ecx,0x2a82(%rip)        # 5228 <filters+0x1e8>
    filters[i].check_max_ttl = 1;
    27a6:	0f b7 0d 7f 2a 00 00 	movzwl 0x2a7f(%rip),%ecx        # 522c <filters+0x1ec>
    filters[i].check_min_len = 1;
    27ad:	80 0d 7a 2a 00 00 01 	orb    $0x1,0x2a7a(%rip)        # 522e <filters+0x1ee>
    filters[i].check_max_ttl = 1;
    27b4:	66 81 e1 fe 00       	and    $0xfe,%cx
    filters[i].min_len = 30;
    27b9:	66 44 89 05 3f 2a 00 	mov    %r8w,0x2a3f(%rip)        # 5200 <filters+0x1c0>
    27c0:	00 
    filters[i].udpopts.dport = 320;
    27c1:	41 b8 40 01 00 00    	mov    $0x140,%r8d
    filters[i].check_max_ttl = 1;
    27c7:	66 81 c9 01 50       	or     $0x5001,%cx
    filters[i].max_len = 50;
    27cc:	66 44 89 0d 30 2a 00 	mov    %r9w,0x2a30(%rip)        # 5204 <filters+0x1c4>
    27d3:	00 
    filters[i].min_len = 30;
    27d4:	41 b9 1e 00 00 00    	mov    $0x1e,%r9d
    filters[i].check_max_ttl = 1;
    27da:	66 89 0d 4b 2a 00 00 	mov    %cx,0x2a4b(%rip)        # 522c <filters+0x1ec>
    filters[i].min_len = 30;
    27e1:	b9 1e 00 00 00       	mov    $0x1e,%ecx
    filters[i].udpopts.sport = 1234;
    27e6:	66 44 89 15 28 2a 00 	mov    %r10w,0x2a28(%rip)        # 5216 <filters+0x1d6>
    27ed:	00 
    filters[i].max_len = 50;
    27ee:	41 ba 32 00 00 00    	mov    $0x32,%r10d
    filters[i].udpopts.dport = 320;
    27f4:	66 44 89 1d 1e 2a 00 	mov    %r11w,0x2a1e(%rip)        # 521a <filters+0x1da>
    27fb:	00 
    filters[i].udpopts.sport = 1234;
    27fc:	41 bb d2 04 00 00    	mov    $0x4d2,%r11d
    filters[i].ip_saddr = saddr.s_addr;
    2802:	89 15 18 2a 00 00    	mov    %edx,0x2a18(%rip)        # 5220 <filters+0x1e0>
    filters[i].ip_daddr = daddr.s_addr;
    2808:	89 05 16 2a 00 00    	mov    %eax,0x2a16(%rip)        # 5224 <filters+0x1e4>
    filters[i].min_len = 30;
    280e:	66 89 0d 1b 2a 00 00 	mov    %cx,0x2a1b(%rip)        # 5230 <filters+0x1f0>
    filters[i].check_tos = 1;
    2815:	8b 0d 3d 2a 00 00    	mov    0x2a3d(%rip),%ecx        # 5258 <filters+0x218>
    filters[i].check_max_len = 1;
    281b:	80 0d 10 2a 00 00 01 	orb    $0x1,0x2a10(%rip)        # 5232 <filters+0x1f2>
    filters[i].check_tos = 1;
    2822:	81 e1 fe 00 fe 00    	and    $0xfe00fe,%ecx
    filters[i].tcpopts.enabled = 0;
    2828:	80 25 09 2a 00 00 fe 	andb   $0xfe,0x2a09(%rip)        # 5238 <filters+0x1f8>
    filters[i].check_tos = 1;
    282f:	81 c9 01 00 01 28    	or     $0x28010001,%ecx
    filters[i].udpopts.enabled = 1;
    2835:	80 0d 08 2a 00 00 03 	orb    $0x3,0x2a08(%rip)        # 5244 <filters+0x204>
    filters[i].check_tos = 1;
    283c:	89 0d 16 2a 00 00    	mov    %ecx,0x2a16(%rip)        # 5258 <filters+0x218>
    filters[i].check_max_ttl = 1;
    2842:	0f b7 0d 13 2a 00 00 	movzwl 0x2a13(%rip),%ecx        # 525c <filters+0x21c>
    filters[i].udpopts.check_dport = 1;
    2849:	80 0d f8 29 00 00 01 	orb    $0x1,0x29f8(%rip)        # 5248 <filters+0x208>
    filters[i].check_max_ttl = 1;
    2850:	66 81 e1 fe 00       	and    $0xfe,%cx
    filters[i].icmpopts.enabled = 0;
    2855:	80 25 f0 29 00 00 fe 	andb   $0xfe,0x29f0(%rip)        # 524c <filters+0x20c>
    filters[i].check_max_ttl = 1;
    285c:	66 81 c9 01 50       	or     $0x5001,%cx
    filters[i].check_min_len = 1;
    2861:	80 0d f6 29 00 00 01 	orb    $0x1,0x29f6(%rip)        # 525e <filters+0x21e>
    filters[i].check_max_ttl = 1;
    2868:	66 89 0d ed 29 00 00 	mov    %cx,0x29ed(%rip)        # 525c <filters+0x21c>
    filters[i].udpopts.dport = 320;
    286f:	b9 40 01 00 00       	mov    $0x140,%ecx
    filters[i].check_max_len = 1;
    2874:	80 0d e7 29 00 00 01 	orb    $0x1,0x29e7(%rip)        # 5262 <filters+0x222>
    filters[i].tcpopts.enabled = 0;
    287b:	80 25 e6 29 00 00 fe 	andb   $0xfe,0x29e6(%rip)        # 5268 <filters+0x228>
    filters[i].udpopts.enabled = 1;
    2882:	80 0d eb 29 00 00 03 	orb    $0x3,0x29eb(%rip)        # 5274 <filters+0x234>
    filters[i].udpopts.check_dport = 1;
    2889:	80 0d e8 29 00 00 01 	orb    $0x1,0x29e8(%rip)        # 5278 <filters+0x238>
    filters[i].max_len = 50;
    2890:	66 89 35 9d 29 00 00 	mov    %si,0x299d(%rip)        # 5234 <filters+0x1f4>
    filters[i].min_len = 30;
    2897:	be 1e 00 00 00       	mov    $0x1e,%esi
    filters[i].udpopts.sport = 1234;
    289c:	66 89 3d a3 29 00 00 	mov    %di,0x29a3(%rip)        # 5246 <filters+0x206>
    filters[i].max_len = 50;
    28a3:	bf 32 00 00 00       	mov    $0x32,%edi
    filters[i].udpopts.dport = 320;
    28a8:	66 44 89 05 9a 29 00 	mov    %r8w,0x299a(%rip)        # 524a <filters+0x20a>
    28af:	00 
    filters[i].udpopts.sport = 1234;
    28b0:	41 b8 d2 04 00 00    	mov    $0x4d2,%r8d
    filters[i].ip_saddr = saddr.s_addr;
    28b6:	89 15 94 29 00 00    	mov    %edx,0x2994(%rip)        # 5250 <filters+0x210>
    filters[i].ip_daddr = daddr.s_addr;
    28bc:	89 05 92 29 00 00    	mov    %eax,0x2992(%rip)        # 5254 <filters+0x214>
    filters[i].min_len = 30;
    28c2:	66 44 89 0d 96 29 00 	mov    %r9w,0x2996(%rip)        # 5260 <filters+0x220>
    28c9:	00 
    filters[i].udpopts.dport = 320;
    28ca:	41 b9 40 01 00 00    	mov    $0x140,%r9d
    filters[i].max_len = 50;
    28d0:	66 44 89 15 8c 29 00 	mov    %r10w,0x298c(%rip)        # 5264 <filters+0x224>
    28d7:	00 
    filters[i].min_len = 30;
    28d8:	41 ba 1e 00 00 00    	mov    $0x1e,%r10d
    filters[i].udpopts.sport = 1234;
    28de:	66 44 89 1d 90 29 00 	mov    %r11w,0x2990(%rip)        # 5276 <filters+0x236>
    28e5:	00 
    filters[i].max_len = 50;
    28e6:	41 bb 32 00 00 00    	mov    $0x32,%r11d
    filters[i].udpopts.dport = 320;
    28ec:	66 89 0d 87 29 00 00 	mov    %cx,0x2987(%rip)        # 527a <filters+0x23a>
    filters[i].check_tos = 1;
    28f3:	8b 0d 8f 29 00 00    	mov    0x298f(%rip),%ecx        # 5288 <filters+0x248>
    filters[i].icmpopts.enabled = 0;
    28f9:	80 25 7c 29 00 00 fe 	andb   $0xfe,0x297c(%rip)        # 527c <filters+0x23c>
    filters[i].check_tos = 1;
    2900:	81 e1 fe 00 fe 00    	and    $0xfe00fe,%ecx
    filters[i].check_min_len = 1;
    2906:	80 0d 81 29 00 00 01 	orb    $0x1,0x2981(%rip)        # 528e <filters+0x24e>
    filters[i].check_tos = 1;
    290d:	81 c9 01 00 01 28    	or     $0x28010001,%ecx
    filters[i].check_max_len = 1;
    2913:	80 0d 78 29 00 00 01 	orb    $0x1,0x2978(%rip)        # 5292 <filters+0x252>
    filters[i].check_tos = 1;
    291a:	89 0d 68 29 00 00    	mov    %ecx,0x2968(%rip)        # 5288 <filters+0x248>
    filters[i].check_max_ttl = 1;
    2920:	0f b7 0d 65 29 00 00 	movzwl 0x2965(%rip),%ecx        # 528c <filters+0x24c>
    filters[i].tcpopts.enabled = 0;
    2927:	80 25 6a 29 00 00 fe 	andb   $0xfe,0x296a(%rip)        # 5298 <filters+0x258>
    filters[i].check_max_ttl = 1;
    292e:	66 81 e1 fe 00       	and    $0xfe,%cx
    filters[i].udpopts.enabled = 1;
    2933:	80 0d 6a 29 00 00 03 	orb    $0x3,0x296a(%rip)        # 52a4 <filters+0x264>
    filters[i].check_max_ttl = 1;
    293a:	66 81 c9 01 50       	or     $0x5001,%cx
    filters[i].udpopts.check_dport = 1;
    293f:	80 0d 62 29 00 00 01 	orb    $0x1,0x2962(%rip)        # 52a8 <filters+0x268>
    filters[i].check_max_ttl = 1;
    2946:	66 89 0d 3f 29 00 00 	mov    %cx,0x293f(%rip)        # 528c <filters+0x24c>
    filters[i].check_tos = 1;
    294d:	8b 0d 65 29 00 00    	mov    0x2965(%rip),%ecx        # 52b8 <filters+0x278>
    filters[i].icmpopts.enabled = 0;
    2953:	80 25 52 29 00 00 fe 	andb   $0xfe,0x2952(%rip)        # 52ac <filters+0x26c>
    filters[i].check_tos = 1;
    295a:	81 e1 fe 00 fe 00    	and    $0xfe00fe,%ecx
    filters[i].check_min_len = 1;
    2960:	80 0d 57 29 00 00 01 	orb    $0x1,0x2957(%rip)        # 52be <filters+0x27e>
    filters[i].check_tos = 1;
    2967:	81 c9 01 00 01 28    	or     $0x28010001,%ecx
    filters[i].ip_saddr = saddr.s_addr;
    296d:	89 15 0d 29 00 00    	mov    %edx,0x290d(%rip)        # 5280 <filters+0x240>
    filters[i].check_tos = 1;
    2973:	89 0d 3f 29 00 00    	mov    %ecx,0x293f(%rip)        # 52b8 <filters+0x278>
    filters[i].check_max_ttl = 1;
    2979:	0f b7 0d 3c 29 00 00 	movzwl 0x293c(%rip),%ecx        # 52bc <filters+0x27c>
    filters[i].ip_daddr = daddr.s_addr;
    2980:	89 05 fe 28 00 00    	mov    %eax,0x28fe(%rip)        # 5284 <filters+0x244>
    filters[i].check_max_ttl = 1;
    2986:	66 81 e1 fe 00       	and    $0xfe,%cx
    filters[i].min_len = 30;
    298b:	66 89 35 fe 28 00 00 	mov    %si,0x28fe(%rip)        # 5290 <filters+0x250>
    filters[i].udpopts.dport = 320;
    2992:	be 40 01 00 00       	mov    $0x140,%esi
    filters[i].check_max_ttl = 1;
    2997:	66 81 c9 01 50       	or     $0x5001,%cx
    filters[i].max_len = 50;
    299c:	66 89 3d f1 28 00 00 	mov    %di,0x28f1(%rip)        # 5294 <filters+0x254>
    filters[i].min_len = 30;
    29a3:	bf 1e 00 00 00       	mov    $0x1e,%edi
    filters[i].udpopts.sport = 1234;
    29a8:	66 44 89 05 f6 28 00 	mov    %r8w,0x28f6(%rip)        # 52a6 <filters+0x266>
    29af:	00 
    filters[i].max_len = 50;
    29b0:	41 b8 32 00 00 00    	mov    $0x32,%r8d
    filters[i].udpopts.dport = 320;
    29b6:	66 44 89 0d ec 28 00 	mov    %r9w,0x28ec(%rip)        # 52aa <filters+0x26a>
    29bd:	00 
    filters[i].udpopts.sport = 1234;
    29be:	41 b9 d2 04 00 00    	mov    $0x4d2,%r9d
    filters[i].ip_saddr = saddr.s_addr;
    29c4:	89 15 e6 28 00 00    	mov    %edx,0x28e6(%rip)        # 52b0 <filters+0x270>
    filters[i].ip_daddr = daddr.s_addr;
    29ca:	89 05 e4 28 00 00    	mov    %eax,0x28e4(%rip)        # 52b4 <filters+0x274>
    filters[i].check_max_ttl = 1;
    29d0:	66 89 0d e5 28 00 00 	mov    %cx,0x28e5(%rip)        # 52bc <filters+0x27c>
    filters[i].udpopts.sport = 1234;
    29d7:	b9 d2 04 00 00       	mov    $0x4d2,%ecx
    filters[i].min_len = 30;
    29dc:	66 44 89 15 dc 28 00 	mov    %r10w,0x28dc(%rip)        # 52c0 <filters+0x280>
    29e3:	00 
    filters[i].udpopts.dport = 320;
    29e4:	41 ba 40 01 00 00    	mov    $0x140,%r10d
    filters[i].ip_daddr = daddr.s_addr;
    29ea:	89 05 f4 28 00 00    	mov    %eax,0x28f4(%rip)        # 52e4 <filters+0x2a4>
    filters[i].check_tos = 1;
    29f0:	8b 05 f2 28 00 00    	mov    0x28f2(%rip),%eax        # 52e8 <filters+0x2a8>
    filters[i].udpopts.dport = 320;
    29f6:	66 89 35 dd 28 00 00 	mov    %si,0x28dd(%rip)        # 52da <filters+0x29a>
  if (inet_pton(AF_INET, "10.10.1.201", &saddr) < 1) {
    29fd:	48 8d 35 17 06 00 00 	lea    0x617(%rip),%rsi        # 301b <_IO_stdin_used+0x1b>
    filters[i].check_tos = 1;
    2a04:	25 fe 00 fe 00       	and    $0xfe00fe,%eax
    filters[i].ip_saddr = saddr.s_addr;
    2a09:	89 15 d1 28 00 00    	mov    %edx,0x28d1(%rip)        # 52e0 <filters+0x2a0>
  if (inet_pton(AF_INET, "10.10.1.201", &saddr) < 1) {
    2a0f:	48 89 ea             	mov    %rbp,%rdx
    filters[i].check_tos = 1;
    2a12:	0d 01 00 01 28       	or     $0x28010001,%eax
    filters[i].min_len = 30;
    2a17:	66 89 3d d2 28 00 00 	mov    %di,0x28d2(%rip)        # 52f0 <filters+0x2b0>
  if (inet_pton(AF_INET, "10.10.1.201", &saddr) < 1) {
    2a1e:	bf 02 00 00 00       	mov    $0x2,%edi
    filters[i].check_tos = 1;
    2a23:	89 05 bf 28 00 00    	mov    %eax,0x28bf(%rip)        # 52e8 <filters+0x2a8>
    filters[i].check_max_ttl = 1;
    2a29:	0f b7 05 bc 28 00 00 	movzwl 0x28bc(%rip),%eax        # 52ec <filters+0x2ac>
    filters[i].check_max_len = 1;
    2a30:	80 0d 8b 28 00 00 01 	orb    $0x1,0x288b(%rip)        # 52c2 <filters+0x282>
    filters[i].check_max_ttl = 1;
    2a37:	66 25 fe 00          	and    $0xfe,%ax
    filters[i].tcpopts.enabled = 0;
    2a3b:	80 25 86 28 00 00 fe 	andb   $0xfe,0x2886(%rip)        # 52c8 <filters+0x288>
    filters[i].check_max_ttl = 1;
    2a42:	66 0d 01 50          	or     $0x5001,%ax
    filters[i].udpopts.enabled = 1;
    2a46:	80 0d 87 28 00 00 03 	orb    $0x3,0x2887(%rip)        # 52d4 <filters+0x294>
    filters[i].udpopts.check_dport = 1;
    2a4d:	80 0d 84 28 00 00 01 	orb    $0x1,0x2884(%rip)        # 52d8 <filters+0x298>
    filters[i].icmpopts.enabled = 0;
    2a54:	80 25 81 28 00 00 fe 	andb   $0xfe,0x2881(%rip)        # 52dc <filters+0x29c>
    filters[i].check_min_len = 1;
    2a5b:	80 0d 8c 28 00 00 01 	orb    $0x1,0x288c(%rip)        # 52ee <filters+0x2ae>
    filters[i].check_max_len = 1;
    2a62:	80 0d 89 28 00 00 01 	orb    $0x1,0x2889(%rip)        # 52f2 <filters+0x2b2>
    filters[i].tcpopts.enabled = 0;
    2a69:	80 25 88 28 00 00 fe 	andb   $0xfe,0x2888(%rip)        # 52f8 <filters+0x2b8>
    filters[i].udpopts.enabled = 1;
    2a70:	80 0d 8d 28 00 00 03 	orb    $0x3,0x288d(%rip)        # 5304 <filters+0x2c4>
    filters[i].udpopts.check_dport = 1;
    2a77:	80 0d 8a 28 00 00 01 	orb    $0x1,0x288a(%rip)        # 5308 <filters+0x2c8>
    filters[i].max_len = 50;
    2a7e:	66 44 89 1d 3e 28 00 	mov    %r11w,0x283e(%rip)        # 52c4 <filters+0x284>
    2a85:	00 
    filters[i].udpopts.sport = 1234;
    2a86:	66 89 0d 49 28 00 00 	mov    %cx,0x2849(%rip)        # 52d6 <filters+0x296>
    filters[i].check_max_ttl = 1;
    2a8d:	66 89 05 58 28 00 00 	mov    %ax,0x2858(%rip)        # 52ec <filters+0x2ac>
    filters[i].max_len = 50;
    2a94:	66 44 89 05 58 28 00 	mov    %r8w,0x2858(%rip)        # 52f4 <filters+0x2b4>
    2a9b:	00 
    filters[i].udpopts.sport = 1234;
    2a9c:	66 44 89 0d 62 28 00 	mov    %r9w,0x2862(%rip)        # 5306 <filters+0x2c6>
    2aa3:	00 
    filters[i].udpopts.dport = 320;
    2aa4:	66 44 89 15 5e 28 00 	mov    %r10w,0x285e(%rip)        # 530a <filters+0x2ca>
    2aab:	00 
    filters[i].icmpopts.enabled = 0;
    2aac:	80 25 59 28 00 00 fe 	andb   $0xfe,0x2859(%rip)        # 530c <filters+0x2cc>
  if (inet_pton(AF_INET, "10.10.1.201", &saddr) < 1) {
    2ab3:	e8 a8 e6 ff ff       	callq  1160 <inet_pton@plt>
    2ab8:	85 c0                	test   %eax,%eax
    2aba:	0f 8e c0 00 00 00    	jle    2b80 <setup_rules+0xa50>
  if (inet_pton(AF_INET, "10.10.0.109", &daddr) < 1) {
    2ac0:	4c 8b 44 24 08       	mov    0x8(%rsp),%r8
  filters[MAX_FILTER_NUM - 1].ip_saddr = saddr.s_addr;
    2ac5:	8b 44 24 10          	mov    0x10(%rsp),%eax
  if (inet_pton(AF_INET, "10.10.0.109", &daddr) < 1) {
    2ac9:	bf 02 00 00 00       	mov    $0x2,%edi
    2ace:	48 8d 35 5c 05 00 00 	lea    0x55c(%rip),%rsi        # 3031 <_IO_stdin_used+0x31>
    2ad5:	4c 89 c2             	mov    %r8,%rdx
  filters[MAX_FILTER_NUM - 1].ip_saddr = saddr.s_addr;
    2ad8:	89 05 32 28 00 00    	mov    %eax,0x2832(%rip)        # 5310 <filters+0x2d0>
  if (inet_pton(AF_INET, "10.10.0.109", &daddr) < 1) {
    2ade:	e8 7d e6 ff ff       	callq  1160 <inet_pton@plt>
    2ae3:	85 c0                	test   %eax,%eax
    2ae5:	0f 8e 95 00 00 00    	jle    2b80 <setup_rules+0xa50>
  filters[MAX_FILTER_NUM - 1].ip_daddr = daddr.s_addr;
    2aeb:	8b 44 24 14          	mov    0x14(%rsp),%eax
  filters[MAX_FILTER_NUM - 1].max_len = 50;
    2aef:	ba 32 00 00 00       	mov    $0x32,%edx
  filters[MAX_FILTER_NUM - 1].udpopts.sport = 1234;
    2af4:	b9 d2 04 00 00       	mov    $0x4d2,%ecx
  filters[MAX_FILTER_NUM - 1].udpopts.dport = 319;
    2af9:	be 3f 01 00 00       	mov    $0x13f,%esi
  filters[MAX_FILTER_NUM - 1].check_max_len = 1;
    2afe:	80 0d 1d 28 00 00 01 	orb    $0x1,0x281d(%rip)        # 5322 <filters+0x2e2>
  filters[MAX_FILTER_NUM - 1].ip_daddr = daddr.s_addr;
    2b05:	89 05 09 28 00 00    	mov    %eax,0x2809(%rip)        # 5314 <filters+0x2d4>
  filters[MAX_FILTER_NUM - 1].check_tos = 1;
    2b0b:	0f b7 05 06 28 00 00 	movzwl 0x2806(%rip),%eax        # 5318 <filters+0x2d8>
  filters[MAX_FILTER_NUM - 1].tcpopts.enabled = 0;
    2b12:	80 25 0f 28 00 00 fe 	andb   $0xfe,0x280f(%rip)        # 5328 <filters+0x2e8>
  filters[MAX_FILTER_NUM - 1].check_tos = 1;
    2b19:	66 25 fe 00          	and    $0xfe,%ax
  filters[MAX_FILTER_NUM - 1].udpopts.enabled = 1;
    2b1d:	80 0d 10 28 00 00 03 	orb    $0x3,0x2810(%rip)        # 5334 <filters+0x2f4>
  filters[MAX_FILTER_NUM - 1].check_tos = 1;
    2b24:	83 c8 01             	or     $0x1,%eax
  filters[MAX_FILTER_NUM - 1].udpopts.check_dport = 1;
    2b27:	80 0d 0a 28 00 00 01 	orb    $0x1,0x280a(%rip)        # 5338 <filters+0x2f8>
  filters[MAX_FILTER_NUM - 1].check_tos = 1;
    2b2e:	66 89 05 e3 27 00 00 	mov    %ax,0x27e3(%rip)        # 5318 <filters+0x2d8>
  filters[MAX_FILTER_NUM - 1].min_ttl = 40;
    2b35:	8b 05 e0 27 00 00    	mov    0x27e0(%rip),%eax        # 531b <filters+0x2db>
  filters[MAX_FILTER_NUM - 1].icmpopts.enabled = 0;
    2b3b:	80 25 fa 27 00 00 fe 	andb   $0xfe,0x27fa(%rip)        # 533c <filters+0x2fc>
  filters[MAX_FILTER_NUM - 1].min_ttl = 40;
    2b42:	25 00 fe 00 fe       	and    $0xfe00fe00,%eax
  filters[MAX_FILTER_NUM - 1].max_len = 50;
    2b47:	66 89 15 d6 27 00 00 	mov    %dx,0x27d6(%rip)        # 5324 <filters+0x2e4>
  filters[MAX_FILTER_NUM - 1].min_ttl = 40;
    2b4e:	0d 28 01 50 01       	or     $0x1500128,%eax
  filters[MAX_FILTER_NUM - 1].udpopts.sport = 1234;
    2b53:	66 89 0d dc 27 00 00 	mov    %cx,0x27dc(%rip)        # 5336 <filters+0x2f6>
  filters[MAX_FILTER_NUM - 1].min_ttl = 40;
    2b5a:	89 05 bb 27 00 00    	mov    %eax,0x27bb(%rip)        # 531b <filters+0x2db>
  filters[MAX_FILTER_NUM - 1].min_len = 30;
    2b60:	b8 1e 00 00 00       	mov    $0x1e,%eax
    2b65:	66 89 05 b4 27 00 00 	mov    %ax,0x27b4(%rip)        # 5320 <filters+0x2e0>
  filters[MAX_FILTER_NUM - 1].udpopts.dport = 319;
    2b6c:	66 89 35 c7 27 00 00 	mov    %si,0x27c7(%rip)        # 533a <filters+0x2fa>
  filter_num = MAX_FILTER_NUM;
    2b73:	c7 05 c3 27 00 00 10 	movl   $0x10,0x27c3(%rip)        # 5340 <filter_num>
    2b7a:	00 00 00 
}
    2b7d:	eb 12                	jmp    2b91 <setup_rules+0xa61>
    2b7f:	90                   	nop
    perror("inet_pton");
    2b80:	48 8d 3d a0 04 00 00 	lea    0x4a0(%rip),%rdi        # 3027 <_IO_stdin_used+0x27>
    2b87:	e8 84 e5 ff ff       	callq  1110 <perror@plt>
    return -1;
    2b8c:	b8 ff ff ff ff       	mov    $0xffffffff,%eax
}
    2b91:	48 8b 74 24 18       	mov    0x18(%rsp),%rsi
    2b96:	64 48 33 34 25 28 00 	xor    %fs:0x28,%rsi
    2b9d:	00 00 
    2b9f:	75 06                	jne    2ba7 <setup_rules+0xa77>
    2ba1:	48 83 c4 20          	add    $0x20,%rsp
    2ba5:	5d                   	pop    %rbp
    2ba6:	c3                   	retq   
    2ba7:	e8 54 e5 ff ff       	callq  1100 <__stack_chk_fail@plt>
    2bac:	0f 1f 40 00          	nopl   0x0(%rax)

0000000000002bb0 <__libc_csu_init>:
    2bb0:	f3 0f 1e fa          	endbr64 
    2bb4:	41 57                	push   %r15
    2bb6:	4c 8d 3d 9b 21 00 00 	lea    0x219b(%rip),%r15        # 4d58 <__frame_dummy_init_array_entry>
    2bbd:	41 56                	push   %r14
    2bbf:	49 89 d6             	mov    %rdx,%r14
    2bc2:	41 55                	push   %r13
    2bc4:	49 89 f5             	mov    %rsi,%r13
    2bc7:	41 54                	push   %r12
    2bc9:	41 89 fc             	mov    %edi,%r12d
    2bcc:	55                   	push   %rbp
    2bcd:	48 8d 2d 8c 21 00 00 	lea    0x218c(%rip),%rbp        # 4d60 <__do_global_dtors_aux_fini_array_entry>
    2bd4:	53                   	push   %rbx
    2bd5:	4c 29 fd             	sub    %r15,%rbp
    2bd8:	48 83 ec 08          	sub    $0x8,%rsp
    2bdc:	e8 1f e4 ff ff       	callq  1000 <_init>
    2be1:	48 c1 fd 03          	sar    $0x3,%rbp
    2be5:	74 1f                	je     2c06 <__libc_csu_init+0x56>
    2be7:	31 db                	xor    %ebx,%ebx
    2be9:	0f 1f 80 00 00 00 00 	nopl   0x0(%rax)
    2bf0:	4c 89 f2             	mov    %r14,%rdx
    2bf3:	4c 89 ee             	mov    %r13,%rsi
    2bf6:	44 89 e7             	mov    %r12d,%edi
    2bf9:	41 ff 14 df          	callq  *(%r15,%rbx,8)
    2bfd:	48 83 c3 01          	add    $0x1,%rbx
    2c01:	48 39 dd             	cmp    %rbx,%rbp
    2c04:	75 ea                	jne    2bf0 <__libc_csu_init+0x40>
    2c06:	48 83 c4 08          	add    $0x8,%rsp
    2c0a:	5b                   	pop    %rbx
    2c0b:	5d                   	pop    %rbp
    2c0c:	41 5c                	pop    %r12
    2c0e:	41 5d                	pop    %r13
    2c10:	41 5e                	pop    %r14
    2c12:	41 5f                	pop    %r15
    2c14:	c3                   	retq   
    2c15:	66 66 2e 0f 1f 84 00 	data16 nopw %cs:0x0(%rax,%rax,1)
    2c1c:	00 00 00 00 

0000000000002c20 <__libc_csu_fini>:
    2c20:	f3 0f 1e fa          	endbr64 
    2c24:	c3                   	retq   

Disassembly of section .fini:

0000000000002c28 <_fini>:
    2c28:	f3 0f 1e fa          	endbr64 
    2c2c:	48 83 ec 08          	sub    $0x8,%rsp
    2c30:	48 83 c4 08          	add    $0x8,%rsp
    2c34:	c3                   	retq   
